

Microchip Technology PIC LITE Macro Assembler V1.35 build -356382666 
                                                                                               Tue Mar 15 21:03:39 2016

Microchip Technology Omniscient Code Generator v1.35 (Free mode) build 201507080246
     1                           	processor	16F877A
     2                           	opt	pw 120
     3                           	opt	lm
     4                           	psect	strings,global,class=STRING,delta=2
     5                           	psect	cinit,global,class=CODE,merge=1,delta=2
     6                           	psect	bssBANK0,global,class=BANK0,space=1,delta=1
     7                           	psect	clrtext,global,class=CODE,delta=2
     8                           	psect	cstackBANK1,global,class=BANK1,space=1,delta=1
     9                           	psect	cstackCOMMON,global,class=COMMON,space=1,delta=1
    10                           	psect	cstackBANK0,global,class=BANK0,space=1,delta=1
    11                           	psect	maintext,global,class=CODE,split=1,delta=2
    12                           	psect	text1,local,class=CODE,merge=1,delta=2
    13                           	psect	text2,local,class=CODE,merge=1,delta=2
    14                           	psect	text3,local,class=CODE,merge=1,delta=2
    15                           	psect	text4,local,class=CODE,merge=1,delta=2
    16                           	psect	intentry,global,class=CODE,delta=2
    17                           	psect	text5,local,class=CODE,merge=1,delta=2
    18                           	psect	text6,local,class=CODE,merge=1,delta=2
    19                           	psect	text7,local,class=CODE,merge=1,delta=2
    20                           	psect	text8,local,class=CODE,merge=1,delta=2
    21                           	psect	text9,local,class=CODE,merge=1,delta=2
    22                           	psect	text10,local,class=CODE,merge=1,delta=2
    23                           	psect	text11,local,class=CODE,merge=1,delta=2
    24                           	psect	text12,local,class=CODE,merge=1,delta=2
    25                           	psect	text13,local,class=CODE,merge=1,delta=2
    26                           	psect	text14,local,class=CODE,merge=1,delta=2
    27                           	dabs	1,0x7E,2
    28  0000                     	;# 
    29  0001                     	;# 
    30  0002                     	;# 
    31  0003                     	;# 
    32  0004                     	;# 
    33  0005                     	;# 
    34  0006                     	;# 
    35  0007                     	;# 
    36  0008                     	;# 
    37  0009                     	;# 
    38  000A                     	;# 
    39  000B                     	;# 
    40  000C                     	;# 
    41  000D                     	;# 
    42  000E                     	;# 
    43  000E                     	;# 
    44  000F                     	;# 
    45  0010                     	;# 
    46  0011                     	;# 
    47  0012                     	;# 
    48  0013                     	;# 
    49  0014                     	;# 
    50  0015                     	;# 
    51  0015                     	;# 
    52  0016                     	;# 
    53  0017                     	;# 
    54  0018                     	;# 
    55  0019                     	;# 
    56  001A                     	;# 
    57  001B                     	;# 
    58  001B                     	;# 
    59  001C                     	;# 
    60  001D                     	;# 
    61  001E                     	;# 
    62  001F                     	;# 
    63  0081                     	;# 
    64  0085                     	;# 
    65  0086                     	;# 
    66  0087                     	;# 
    67  0088                     	;# 
    68  0089                     	;# 
    69  008C                     	;# 
    70  008D                     	;# 
    71  008E                     	;# 
    72  0091                     	;# 
    73  0092                     	;# 
    74  0093                     	;# 
    75  0094                     	;# 
    76  0098                     	;# 
    77  0099                     	;# 
    78  009C                     	;# 
    79  009D                     	;# 
    80  009E                     	;# 
    81  009F                     	;# 
    82  010C                     	;# 
    83  010D                     	;# 
    84  010E                     	;# 
    85  010F                     	;# 
    86  018C                     	;# 
    87  018D                     	;# 
    88  0000                     	;# 
    89  0001                     	;# 
    90  0002                     	;# 
    91  0003                     	;# 
    92  0004                     	;# 
    93  0005                     	;# 
    94  0006                     	;# 
    95  0007                     	;# 
    96  0008                     	;# 
    97  0009                     	;# 
    98  000A                     	;# 
    99  000B                     	;# 
   100  000C                     	;# 
   101  000D                     	;# 
   102  000E                     	;# 
   103  000E                     	;# 
   104  000F                     	;# 
   105  0010                     	;# 
   106  0011                     	;# 
   107  0012                     	;# 
   108  0013                     	;# 
   109  0014                     	;# 
   110  0015                     	;# 
   111  0015                     	;# 
   112  0016                     	;# 
   113  0017                     	;# 
   114  0018                     	;# 
   115  0019                     	;# 
   116  001A                     	;# 
   117  001B                     	;# 
   118  001B                     	;# 
   119  001C                     	;# 
   120  001D                     	;# 
   121  001E                     	;# 
   122  001F                     	;# 
   123  0081                     	;# 
   124  0085                     	;# 
   125  0086                     	;# 
   126  0087                     	;# 
   127  0088                     	;# 
   128  0089                     	;# 
   129  008C                     	;# 
   130  008D                     	;# 
   131  008E                     	;# 
   132  0091                     	;# 
   133  0092                     	;# 
   134  0093                     	;# 
   135  0094                     	;# 
   136  0098                     	;# 
   137  0099                     	;# 
   138  009C                     	;# 
   139  009D                     	;# 
   140  009E                     	;# 
   141  009F                     	;# 
   142  010C                     	;# 
   143  010D                     	;# 
   144  010E                     	;# 
   145  010F                     	;# 
   146  018C                     	;# 
   147  018D                     	;# 
   148  0000                     	;# 
   149  0001                     	;# 
   150  0002                     	;# 
   151  0003                     	;# 
   152  0004                     	;# 
   153  0005                     	;# 
   154  0006                     	;# 
   155  0007                     	;# 
   156  0008                     	;# 
   157  0009                     	;# 
   158  000A                     	;# 
   159  000B                     	;# 
   160  000C                     	;# 
   161  000D                     	;# 
   162  000E                     	;# 
   163  000E                     	;# 
   164  000F                     	;# 
   165  0010                     	;# 
   166  0011                     	;# 
   167  0012                     	;# 
   168  0013                     	;# 
   169  0014                     	;# 
   170  0015                     	;# 
   171  0015                     	;# 
   172  0016                     	;# 
   173  0017                     	;# 
   174  0018                     	;# 
   175  0019                     	;# 
   176  001A                     	;# 
   177  001B                     	;# 
   178  001B                     	;# 
   179  001C                     	;# 
   180  001D                     	;# 
   181  001E                     	;# 
   182  001F                     	;# 
   183  0081                     	;# 
   184  0085                     	;# 
   185  0086                     	;# 
   186  0087                     	;# 
   187  0088                     	;# 
   188  0089                     	;# 
   189  008C                     	;# 
   190  008D                     	;# 
   191  008E                     	;# 
   192  0091                     	;# 
   193  0092                     	;# 
   194  0093                     	;# 
   195  0094                     	;# 
   196  0098                     	;# 
   197  0099                     	;# 
   198  009C                     	;# 
   199  009D                     	;# 
   200  009E                     	;# 
   201  009F                     	;# 
   202  010C                     	;# 
   203  010D                     	;# 
   204  010E                     	;# 
   205  010F                     	;# 
   206  018C                     	;# 
   207  018D                     	;# 
   208  0000                     	;# 
   209  0001                     	;# 
   210  0002                     	;# 
   211  0003                     	;# 
   212  0004                     	;# 
   213  0005                     	;# 
   214  0006                     	;# 
   215  0007                     	;# 
   216  0008                     	;# 
   217  0009                     	;# 
   218  000A                     	;# 
   219  000B                     	;# 
   220  000C                     	;# 
   221  000D                     	;# 
   222  000E                     	;# 
   223  000E                     	;# 
   224  000F                     	;# 
   225  0010                     	;# 
   226  0011                     	;# 
   227  0012                     	;# 
   228  0013                     	;# 
   229  0014                     	;# 
   230  0015                     	;# 
   231  0015                     	;# 
   232  0016                     	;# 
   233  0017                     	;# 
   234  0018                     	;# 
   235  0019                     	;# 
   236  001A                     	;# 
   237  001B                     	;# 
   238  001B                     	;# 
   239  001C                     	;# 
   240  001D                     	;# 
   241  001E                     	;# 
   242  001F                     	;# 
   243  0081                     	;# 
   244  0085                     	;# 
   245  0086                     	;# 
   246  0087                     	;# 
   247  0088                     	;# 
   248  0089                     	;# 
   249  008C                     	;# 
   250  008D                     	;# 
   251  008E                     	;# 
   252  0091                     	;# 
   253  0092                     	;# 
   254  0093                     	;# 
   255  0094                     	;# 
   256  0098                     	;# 
   257  0099                     	;# 
   258  009C                     	;# 
   259  009D                     	;# 
   260  009E                     	;# 
   261  009F                     	;# 
   262  010C                     	;# 
   263  010D                     	;# 
   264  010E                     	;# 
   265  010F                     	;# 
   266  018C                     	;# 
   267  018D                     	;# 
   268  0000                     	;# 
   269  0001                     	;# 
   270  0002                     	;# 
   271  0003                     	;# 
   272  0004                     	;# 
   273  0005                     	;# 
   274  0006                     	;# 
   275  0007                     	;# 
   276  0008                     	;# 
   277  0009                     	;# 
   278  000A                     	;# 
   279  000B                     	;# 
   280  000C                     	;# 
   281  000D                     	;# 
   282  000E                     	;# 
   283  000E                     	;# 
   284  000F                     	;# 
   285  0010                     	;# 
   286  0011                     	;# 
   287  0012                     	;# 
   288  0013                     	;# 
   289  0014                     	;# 
   290  0015                     	;# 
   291  0015                     	;# 
   292  0016                     	;# 
   293  0017                     	;# 
   294  0018                     	;# 
   295  0019                     	;# 
   296  001A                     	;# 
   297  001B                     	;# 
   298  001B                     	;# 
   299  001C                     	;# 
   300  001D                     	;# 
   301  001E                     	;# 
   302  001F                     	;# 
   303  0081                     	;# 
   304  0085                     	;# 
   305  0086                     	;# 
   306  0087                     	;# 
   307  0088                     	;# 
   308  0089                     	;# 
   309  008C                     	;# 
   310  008D                     	;# 
   311  008E                     	;# 
   312  0091                     	;# 
   313  0092                     	;# 
   314  0093                     	;# 
   315  0094                     	;# 
   316  0098                     	;# 
   317  0099                     	;# 
   318  009C                     	;# 
   319  009D                     	;# 
   320  009E                     	;# 
   321  009F                     	;# 
   322  010C                     	;# 
   323  010D                     	;# 
   324  010E                     	;# 
   325  010F                     	;# 
   326  018C                     	;# 
   327  018D                     	;# 
   328  0000                     	;# 
   329  0001                     	;# 
   330  0002                     	;# 
   331  0003                     	;# 
   332  0004                     	;# 
   333  0005                     	;# 
   334  0006                     	;# 
   335  0007                     	;# 
   336  0008                     	;# 
   337  0009                     	;# 
   338  000A                     	;# 
   339  000B                     	;# 
   340  000C                     	;# 
   341  000D                     	;# 
   342  000E                     	;# 
   343  000E                     	;# 
   344  000F                     	;# 
   345  0010                     	;# 
   346  0011                     	;# 
   347  0012                     	;# 
   348  0013                     	;# 
   349  0014                     	;# 
   350  0015                     	;# 
   351  0015                     	;# 
   352  0016                     	;# 
   353  0017                     	;# 
   354  0018                     	;# 
   355  0019                     	;# 
   356  001A                     	;# 
   357  001B                     	;# 
   358  001B                     	;# 
   359  001C                     	;# 
   360  001D                     	;# 
   361  001E                     	;# 
   362  001F                     	;# 
   363  0081                     	;# 
   364  0085                     	;# 
   365  0086                     	;# 
   366  0087                     	;# 
   367  0088                     	;# 
   368  0089                     	;# 
   369  008C                     	;# 
   370  008D                     	;# 
   371  008E                     	;# 
   372  0091                     	;# 
   373  0092                     	;# 
   374  0093                     	;# 
   375  0094                     	;# 
   376  0098                     	;# 
   377  0099                     	;# 
   378  009C                     	;# 
   379  009D                     	;# 
   380  009E                     	;# 
   381  009F                     	;# 
   382  010C                     	;# 
   383  010D                     	;# 
   384  010E                     	;# 
   385  010F                     	;# 
   386  018C                     	;# 
   387  018D                     	;# 
   388  0000                     	;# 
   389  0001                     	;# 
   390  0002                     	;# 
   391  0003                     	;# 
   392  0004                     	;# 
   393  0005                     	;# 
   394  0006                     	;# 
   395  0007                     	;# 
   396  0008                     	;# 
   397  0009                     	;# 
   398  000A                     	;# 
   399  000B                     	;# 
   400  000C                     	;# 
   401  000D                     	;# 
   402  000E                     	;# 
   403  000E                     	;# 
   404  000F                     	;# 
   405  0010                     	;# 
   406  0011                     	;# 
   407  0012                     	;# 
   408  0013                     	;# 
   409  0014                     	;# 
   410  0015                     	;# 
   411  0015                     	;# 
   412  0016                     	;# 
   413  0017                     	;# 
   414  0018                     	;# 
   415  0019                     	;# 
   416  001A                     	;# 
   417  001B                     	;# 
   418  001B                     	;# 
   419  001C                     	;# 
   420  001D                     	;# 
   421  001E                     	;# 
   422  001F                     	;# 
   423  0081                     	;# 
   424  0085                     	;# 
   425  0086                     	;# 
   426  0087                     	;# 
   427  0088                     	;# 
   428  0089                     	;# 
   429  008C                     	;# 
   430  008D                     	;# 
   431  008E                     	;# 
   432  0091                     	;# 
   433  0092                     	;# 
   434  0093                     	;# 
   435  0094                     	;# 
   436  0098                     	;# 
   437  0099                     	;# 
   438  009C                     	;# 
   439  009D                     	;# 
   440  009E                     	;# 
   441  009F                     	;# 
   442  010C                     	;# 
   443  010D                     	;# 
   444  010E                     	;# 
   445  010F                     	;# 
   446  018C                     	;# 
   447  018D                     	;# 
   448  0000                     	;# 
   449  0001                     	;# 
   450  0002                     	;# 
   451  0003                     	;# 
   452  0004                     	;# 
   453  0005                     	;# 
   454  0006                     	;# 
   455  0007                     	;# 
   456  0008                     	;# 
   457  0009                     	;# 
   458  000A                     	;# 
   459  000B                     	;# 
   460  000C                     	;# 
   461  000D                     	;# 
   462  000E                     	;# 
   463  000E                     	;# 
   464  000F                     	;# 
   465  0010                     	;# 
   466  0011                     	;# 
   467  0012                     	;# 
   468  0013                     	;# 
   469  0014                     	;# 
   470  0015                     	;# 
   471  0015                     	;# 
   472  0016                     	;# 
   473  0017                     	;# 
   474  0018                     	;# 
   475  0019                     	;# 
   476  001A                     	;# 
   477  001B                     	;# 
   478  001B                     	;# 
   479  001C                     	;# 
   480  001D                     	;# 
   481  001E                     	;# 
   482  001F                     	;# 
   483  0081                     	;# 
   484  0085                     	;# 
   485  0086                     	;# 
   486  0087                     	;# 
   487  0088                     	;# 
   488  0089                     	;# 
   489  008C                     	;# 
   490  008D                     	;# 
   491  008E                     	;# 
   492  0091                     	;# 
   493  0092                     	;# 
   494  0093                     	;# 
   495  0094                     	;# 
   496  0098                     	;# 
   497  0099                     	;# 
   498  009C                     	;# 
   499  009D                     	;# 
   500  009E                     	;# 
   501  009F                     	;# 
   502  010C                     	;# 
   503  010D                     	;# 
   504  010E                     	;# 
   505  010F                     	;# 
   506  018C                     	;# 
   507  018D                     	;# 
   508  0000                     	;# 
   509  0001                     	;# 
   510  0002                     	;# 
   511  0003                     	;# 
   512  0004                     	;# 
   513  0005                     	;# 
   514  0006                     	;# 
   515  0007                     	;# 
   516  0008                     	;# 
   517  0009                     	;# 
   518  000A                     	;# 
   519  000B                     	;# 
   520  000C                     	;# 
   521  000D                     	;# 
   522  000E                     	;# 
   523  000E                     	;# 
   524  000F                     	;# 
   525  0010                     	;# 
   526  0011                     	;# 
   527  0012                     	;# 
   528  0013                     	;# 
   529  0014                     	;# 
   530  0015                     	;# 
   531  0015                     	;# 
   532  0016                     	;# 
   533  0017                     	;# 
   534  0018                     	;# 
   535  0019                     	;# 
   536  001A                     	;# 
   537  001B                     	;# 
   538  001B                     	;# 
   539  001C                     	;# 
   540  001D                     	;# 
   541  001E                     	;# 
   542  001F                     	;# 
   543  0081                     	;# 
   544  0085                     	;# 
   545  0086                     	;# 
   546  0087                     	;# 
   547  0088                     	;# 
   548  0089                     	;# 
   549  008C                     	;# 
   550  008D                     	;# 
   551  008E                     	;# 
   552  0091                     	;# 
   553  0092                     	;# 
   554  0093                     	;# 
   555  0094                     	;# 
   556  0098                     	;# 
   557  0099                     	;# 
   558  009C                     	;# 
   559  009D                     	;# 
   560  009E                     	;# 
   561  009F                     	;# 
   562  010C                     	;# 
   563  010D                     	;# 
   564  010E                     	;# 
   565  010F                     	;# 
   566  018C                     	;# 
   567  018D                     	;# 
   568  0000                     	;# 
   569  0001                     	;# 
   570  0002                     	;# 
   571  0003                     	;# 
   572  0004                     	;# 
   573  0005                     	;# 
   574  0006                     	;# 
   575  0007                     	;# 
   576  0008                     	;# 
   577  0009                     	;# 
   578  000A                     	;# 
   579  000B                     	;# 
   580  000C                     	;# 
   581  000D                     	;# 
   582  000E                     	;# 
   583  000E                     	;# 
   584  000F                     	;# 
   585  0010                     	;# 
   586  0011                     	;# 
   587  0012                     	;# 
   588  0013                     	;# 
   589  0014                     	;# 
   590  0015                     	;# 
   591  0015                     	;# 
   592  0016                     	;# 
   593  0017                     	;# 
   594  0018                     	;# 
   595  0019                     	;# 
   596  001A                     	;# 
   597  001B                     	;# 
   598  001B                     	;# 
   599  001C                     	;# 
   600  001D                     	;# 
   601  001E                     	;# 
   602  001F                     	;# 
   603  0081                     	;# 
   604  0085                     	;# 
   605  0086                     	;# 
   606  0087                     	;# 
   607  0088                     	;# 
   608  0089                     	;# 
   609  008C                     	;# 
   610  008D                     	;# 
   611  008E                     	;# 
   612  0091                     	;# 
   613  0092                     	;# 
   614  0093                     	;# 
   615  0094                     	;# 
   616  0098                     	;# 
   617  0099                     	;# 
   618  009C                     	;# 
   619  009D                     	;# 
   620  009E                     	;# 
   621  009F                     	;# 
   622  010C                     	;# 
   623  010D                     	;# 
   624  010E                     	;# 
   625  010F                     	;# 
   626  018C                     	;# 
   627  018D                     	;# 
   628                           
   629                           	psect	strings
   630  024F                     __pstrings:	
   631  024F                     stringtab:	
   632  024F                     __stringtab:	
   633  024F                     stringcode:	
   634                           ;	String table - string pointers are 1 byte each
   635                           
   636  024F                     stringdir:	
   637  024F  3002               	movlw	high stringdir
   638  0250  008A               	movwf	10
   639  0251  0804               	movf	4,w
   640  0252  0A84               	incf	4,f
   641  0253  0782               	addwf	2,f
   642  0254                     __stringbase:	
   643  0254  3400               	retlw	0
   644  0255                     __end_of__stringtab:	
   645  0255                     uint16_to_byte_array@bit_mask:	
   646  0255  34FF               	retlw	255
   647  0256  3400               	retlw	0
   648  0257                     __end_ofuint16_to_byte_array@bit_mask:	
   649  000B                     _INTCONbits	set	11
   650  000C                     _PIR1bits	set	12
   651  0007                     _PORTCbits	set	7
   652  0008                     _PORTDbits	set	8
   653  001A                     _RCREG	set	26
   654  0018                     _RCSTA	set	24
   655  0013                     _SSPBUF	set	19
   656  0014                     _SSPCONbits	set	20
   657  0019                     _TXREG	set	25
   658  0065                     _RCIF	set	101
   659  0064                     _TXIF	set	100
   660  008C                     _PIE1bits	set	140
   661  0099                     _SPBRG	set	153
   662  0094                     _SSPSTATbits	set	148
   663  0087                     _TRISCbits	set	135
   664  0088                     _TRISDbits	set	136
   665  0089                     _TRISEbits	set	137
   666  0098                     _TXSTA	set	152
   667                           
   668                           ; #config settings
   669  0000                     
   670                           	psect	cinit
   671  0015                     start_initialization:	
   672  0015                     __initialization:	
   673                           
   674                           ; Clear objects allocated to BANK0
   675  0015  1383               	bcf	3,7	;select IRP bank0
   676  0016  3020               	movlw	low __pbssBANK0
   677  0017  0084               	movwf	4
   678  0018  3050               	movlw	low (__pbssBANK0+48)
   679  0019  120A  118A  2257   	fcall	clear_ram0
   680  001C                     end_of_initialization:	
   681                           ;End of C runtime variable initialization code
   682                           
   683  001C                     __end_of__initialization:	
   684  001C  0183               	clrf	3
   685  001D  120A  118A  2820   	ljmp	_main	;jump to C main() function
   686                           
   687                           	psect	bssBANK0
   688  0020                     __pbssBANK0:	
   689  0020                     ADT_ActionMode@F1258:	
   690  0020                     	ds	2
   691  0022                     _index_pos:	
   692  0022                     	ds	1
   693  0023                     _packet:	
   694  0023                     	ds	32
   695  0043                     _cw:	
   696  0043                     	ds	13
   697                           
   698                           	psect	clrtext
   699  0257                     clear_ram0:	
   700                           ;	Called with FSR containing the base address, and
   701                           ;	W with the last address+1
   702                           
   703  0257  0064               	clrwdt	;clear the watchdog before getting into this loop
   704  0258                     clrloop0:	
   705  0258  0180               	clrf	0	;clear RAM location pointed to by FSR
   706  0259  0A84               	incf	4,f	;increment pointer
   707  025A  0604               	xorwf	4,w	;XOR with final address
   708  025B  1903               	btfsc	3,2	;have we reached the end yet?
   709  025C  3400               	retlw	0	;all done for this memory range, return
   710  025D  0604               	xorwf	4,w	;XOR again to restore value
   711  025E  2A58               	goto	clrloop0	;do the next byte
   712                           
   713                           	psect	cstackBANK1
   714  00A0                     __pcstackBANK1:	
   715  00A0                     ??_main:	
   716                           
   717                           ; 0 bytes @ 0x0
   718  00A0                     	ds	3
   719                           
   720                           	psect	cstackCOMMON
   721  0070                     __pcstackCOMMON:	
   722  0070                     ?_putch:	
   723  0070                     ??_putch:	
   724                           ; 0 bytes @ 0x0
   725                           
   726  0070                     ?_uart_init:	
   727                           ; 0 bytes @ 0x0
   728                           
   729  0070                     ?_I2C_init:	
   730                           ; 0 bytes @ 0x0
   731                           
   732  0070                     ?_I2C_Start:	
   733                           ; 0 bytes @ 0x0
   734                           
   735  0070                     ??_I2C_Start:	
   736                           ; 0 bytes @ 0x0
   737                           
   738  0070                     ?_I2C_Stop:	
   739                           ; 0 bytes @ 0x0
   740                           
   741  0070                     ??_I2C_Stop:	
   742                           ; 0 bytes @ 0x0
   743                           
   744  0070                     ??_I2C_Out:	
   745                           ; 0 bytes @ 0x0
   746                           
   747  0070                     ??_I2C_Rcv:	
   748                           ; 0 bytes @ 0x0
   749                           
   750  0070                     ?_OBC1_RESET_init:	
   751                           ; 0 bytes @ 0x0
   752                           
   753  0070                     ?_interrupt_disable:	
   754                           ; 0 bytes @ 0x0
   755                           
   756  0070                     ??_interrupt_disable:	
   757                           ; 0 bytes @ 0x0
   758                           
   759  0070                     ?_trans_I2Ctemp:	
   760                           ; 0 bytes @ 0x0
   761                           
   762  0070                     ?_I2Ctemp:	
   763                           ; 0 bytes @ 0x0
   764                           
   765  0070                     ?_I2C_Out:	
   766                           ; 0 bytes @ 0x0
   767                           
   768  0070                     ?_I2C_Rcv:	
   769                           ; 1 bytes @ 0x0
   770                           
   771  0070                     ?_main:	
   772                           ; 1 bytes @ 0x0
   773                           
   774  0070                     putch@byte:	
   775                           ; 2 bytes @ 0x0
   776                           
   777                           
   778                           ; 1 bytes @ 0x0
   779  0070                     	ds	2
   780  0072                     I2C_Out@ACK:	
   781  0072                     I2C_Rcv@Ack:	
   782                           ; 1 bytes @ 0x2
   783                           
   784                           
   785                           ; 1 bytes @ 0x2
   786  0072                     	ds	1
   787  0073                     I2C_Out@data:	
   788  0073                     I2C_Rcv@data:	
   789                           ; 1 bytes @ 0x3
   790                           
   791                           
   792                           ; 1 bytes @ 0x3
   793  0073                     	ds	1
   794  0074                     I2C_Out@i:	
   795  0074                     I2C_Rcv@i:	
   796                           ; 2 bytes @ 0x4
   797                           
   798                           
   799                           ; 2 bytes @ 0x4
   800  0074                     	ds	2
   801  0076                     I2C_Out@BitPos:	
   802  0076                     I2C_Rcv@BitPos:	
   803                           ; 1 bytes @ 0x6
   804                           
   805                           
   806                           ; 1 bytes @ 0x6
   807  0076                     	ds	1
   808  0077                     ?_I2C_Send:	
   809  0077                     ?_I2C_GetData:	
   810                           ; 0 bytes @ 0x7
   811                           
   812  0077                     I2C_Send@data:	
   813                           ; 0 bytes @ 0x7
   814                           
   815  0077                     I2C_GetData@Buffer:	
   816                           ; 1 bytes @ 0x7
   817                           
   818                           
   819                           ; 1 bytes @ 0x7
   820  0077                     	ds	1
   821  0078                     ??_I2C_Send:	
   822  0078                     I2C_GetData@CNT:	
   823                           ; 0 bytes @ 0x8
   824                           
   825                           
   826                           ; 1 bytes @ 0x8
   827  0078                     	ds	1
   828  0079                     ??_I2C_GetData:	
   829                           
   830                           ; 0 bytes @ 0x9
   831  0079                     	ds	1
   832  007A                     I2C_Send@slave_adr:	
   833                           
   834                           ; 1 bytes @ 0xA
   835  007A                     	ds	1
   836  007B                     I2C_Send@adr:	
   837  007B                     I2C_GetData@slave_adr:	
   838                           ; 1 bytes @ 0xB
   839                           
   840                           
   841                           ; 1 bytes @ 0xB
   842  007B                     	ds	1
   843  007C                     I2C_GetData@adr:	
   844                           
   845                           ; 1 bytes @ 0xC
   846  007C                     	ds	1
   847  007D                     I2C_GetData@i:	
   848                           
   849                           ; 1 bytes @ 0xD
   850  007D                     	ds	1
   851                           
   852                           	psect	cstackBANK0
   853  0050                     __pcstackBANK0:	
   854  0050                     ?_ADT_Receive:	
   855  0050                     ADT_Receive@data:	
   856                           ; 1 bytes @ 0x0
   857                           
   858                           
   859                           ; 1 bytes @ 0x0
   860  0050                     	ds	1
   861  0051                     ADT_Receive@kosu:	
   862                           
   863                           ; 1 bytes @ 0x1
   864  0051                     	ds	1
   865  0052                     ??_ADT_Receive:	
   866                           
   867                           ; 0 bytes @ 0x2
   868  0052                     	ds	2
   869  0054                     ADT_Receive@reg_adrs:	
   870                           
   871                           ; 1 bytes @ 0x4
   872  0054                     	ds	1
   873  0055                     ADT_Receive@ans:	
   874                           
   875                           ; 1 bytes @ 0x5
   876  0055                     	ds	1
   877  0056                     ??_trans_I2Ctemp:	
   878                           
   879                           ; 0 bytes @ 0x6
   880  0056                     	ds	3
   881  0059                     trans_I2Ctemp@data:	
   882                           
   883                           ; 2 bytes @ 0x9
   884  0059                     	ds	2
   885  005B                     ??_I2Ctemp:	
   886                           
   887                           ; 0 bytes @ 0xB
   888  005B                     	ds	4
   889  005F                     ??_uart_init:	
   890  005F                     ??_I2C_init:	
   891                           ; 0 bytes @ 0xF
   892                           
   893  005F                     ??_OBC1_RESET_init:	
   894                           ; 0 bytes @ 0xF
   895                           
   896  005F                     OBC1_RESET_init@nin:	
   897                           ; 0 bytes @ 0xF
   898                           
   899                           
   900                           ; 2 bytes @ 0xF
   901  005F                     	ds	2
   902                           
   903                           	psect	maintext
   904  0020                     __pmaintext:	
   905 ;;
   906 ;;Main: autosize = 0, tempsize = 3, incstack = 0, save=0
   907 ;;
   908 ;; *************** function _main *****************
   909 ;; Defined at:
   910 ;;		line 26 in file "OBC2_main.c"
   911 ;; Parameters:    Size  Location     Type
   912 ;;		None
   913 ;; Auto vars:     Size  Location     Type
   914 ;;		None
   915 ;; Return value:  Size  Location     Type
   916 ;;                  2  461[None  ] int 
   917 ;; Registers used:
   918 ;;		wreg, fsr0l, fsr0h, status,2, status,0, pclath, cstack
   919 ;; Tracked objects:
   920 ;;		On entry : B00/0
   921 ;;		On exit  : 0/0
   922 ;;		Unchanged: 0/0
   923 ;; Data sizes:     COMMON   BANK0   BANK1   BANK3   BANK2
   924 ;;      Params:         0       0       0       0       0
   925 ;;      Locals:         0       0       0       0       0
   926 ;;      Temps:          0       0       3       0       0
   927 ;;      Totals:         0       0       3       0       0
   928 ;;Total ram usage:        3 bytes
   929 ;; Hardware stack levels required when called:    6
   930 ;; This function calls:
   931 ;;		_I2C_init
   932 ;;		_OBC1_RESET_init
   933 ;;		_uart_init
   934 ;; This function is called by:
   935 ;;		Startup code after reset
   936 ;; This function uses a non-reentrant model
   937 ;;
   938                           
   939                           
   940                           ;psect for function _main
   941  0020                     _main:	
   942                           
   943                           ;OBC2_main.c: 28: TRISDbits.TRISD7 = 0;
   944                           
   945                           ;incstack = 0
   946                           ; Regs used in _main: [wreg-fsr0h+status,2+status,0+pclath+cstack]
   947  0020  1683               	bsf	3,5	;RP0=1, select bank1
   948  0021  1303               	bcf	3,6	;RP1=0, select bank1
   949  0022  1388               	bcf	8,7	;volatile
   950                           
   951                           ;OBC2_main.c: 29: PORTDbits.RD7 = 0;
   952  0023  1283               	bcf	3,5	;RP0=0, select bank0
   953  0024  1303               	bcf	3,6	;RP1=0, select bank0
   954  0025  1388               	bcf	8,7	;volatile
   955                           
   956                           ;OBC2_main.c: 30: OBC1_RESET_init();
   957  0026  120A  118A  2220  120A  118A  	fcall	_OBC1_RESET_init
   958                           
   959                           ;OBC2_main.c: 31: I2C_init();
   960  002B  120A  118A  2236  120A  118A  	fcall	_I2C_init
   961                           
   962                           ;OBC2_main.c: 32: uart_init();
   963  0030  120A  118A  2243  120A  118A  	fcall	_uart_init
   964                           
   965                           ;OBC2_main.c: 33: PORTDbits.RD7 = 1;
   966  0035  1283               	bcf	3,5	;RP0=0, select bank0
   967  0036  1303               	bcf	3,6	;RP1=0, select bank0
   968  0037  1788               	bsf	8,7	;volatile
   969                           
   970                           ;OBC2_main.c: 34: _delay((unsigned long)((1000)*(20000000/4000.0)));
   971  0038  301A               	movlw	26
   972  0039  1683               	bsf	3,5	;RP0=1, select bank1
   973  003A  1303               	bcf	3,6	;RP1=0, select bank1
   974  003B  00A2               	movwf	(??_main^(0+128)+2)
   975  003C  305E               	movlw	94
   976  003D  00A1               	movwf	(??_main^(0+128)+1)
   977  003E  3086               	movlw	134
   978  003F  00A0               	movwf	??_main^(0+128)
   979  0040                     u987:	
   980  0040  0BA0               	decfsz	??_main^(0+128),f
   981  0041  2840               	goto	u987
   982  0042  0BA1               	decfsz	(??_main^(0+128)+1),f
   983  0043  2840               	goto	u987
   984  0044  0BA2               	decfsz	(??_main^(0+128)+2),f
   985  0045  2840               	goto	u987
   986  0046  0000               	nop
   987                           
   988                           ;OBC2_main.c: 35: PORTDbits.RD7 = 0;
   989  0047  1283               	bcf	3,5	;RP0=0, select bank0
   990  0048  1303               	bcf	3,6	;RP1=0, select bank0
   991  0049  1388               	bcf	8,7	;volatile
   992                           
   993                           ;OBC2_main.c: 36: _delay((unsigned long)((1000)*(20000000/4000.0)));
   994  004A  301A               	movlw	26
   995  004B  1683               	bsf	3,5	;RP0=1, select bank1
   996  004C  1303               	bcf	3,6	;RP1=0, select bank1
   997  004D  00A2               	movwf	(??_main^(0+128)+2)
   998  004E  305E               	movlw	94
   999  004F  00A1               	movwf	(??_main^(0+128)+1)
  1000  0050  3086               	movlw	134
  1001  0051  00A0               	movwf	??_main^(0+128)
  1002  0052                     u997:	
  1003  0052  0BA0               	decfsz	??_main^(0+128),f
  1004  0053  2852               	goto	u997
  1005  0054  0BA1               	decfsz	(??_main^(0+128)+1),f
  1006  0055  2852               	goto	u997
  1007  0056  0BA2               	decfsz	(??_main^(0+128)+2),f
  1008  0057  2852               	goto	u997
  1009  0058  0000               	nop
  1010  0059                     l2231:	
  1011                           ;OBC2_main.c: 39: while(1)
  1012                           
  1013                           
  1014                           ;OBC2_main.c: 40: {
  1015                           ;OBC2_main.c: 41: PORTDbits.RD7 = 1;
  1016  0059  1283               	bcf	3,5	;RP0=0, select bank0
  1017  005A  1303               	bcf	3,6	;RP1=0, select bank0
  1018  005B  1788               	bsf	8,7	;volatile
  1019                           
  1020                           ;OBC2_main.c: 42: _delay((unsigned long)((100)*(20000000/4000.0)));
  1021  005C  3003               	movlw	3
  1022  005D  1683               	bsf	3,5	;RP0=1, select bank1
  1023  005E  1303               	bcf	3,6	;RP1=0, select bank1
  1024  005F  00A2               	movwf	(??_main^(0+128)+2)
  1025  0060  308A               	movlw	138
  1026  0061  00A1               	movwf	(??_main^(0+128)+1)
  1027  0062  3056               	movlw	86
  1028  0063  00A0               	movwf	??_main^(0+128)
  1029  0064                     u1007:	
  1030  0064  0BA0               	decfsz	??_main^(0+128),f
  1031  0065  2864               	goto	u1007
  1032  0066  0BA1               	decfsz	(??_main^(0+128)+1),f
  1033  0067  2864               	goto	u1007
  1034  0068  0BA2               	decfsz	(??_main^(0+128)+2),f
  1035  0069  2864               	goto	u1007
  1036  006A  286B               	nop2
  1037                           
  1038                           ;OBC2_main.c: 57: PORTDbits.RD7 = 0;
  1039  006B  1283               	bcf	3,5	;RP0=0, select bank0
  1040  006C  1303               	bcf	3,6	;RP1=0, select bank0
  1041  006D  1388               	bcf	8,7	;volatile
  1042                           
  1043                           ;OBC2_main.c: 58: _delay((unsigned long)((100)*(20000000/4000.0)));
  1044  006E  3003               	movlw	3
  1045  006F  1683               	bsf	3,5	;RP0=1, select bank1
  1046  0070  1303               	bcf	3,6	;RP1=0, select bank1
  1047  0071  00A2               	movwf	(??_main^(0+128)+2)
  1048  0072  308A               	movlw	138
  1049  0073  00A1               	movwf	(??_main^(0+128)+1)
  1050  0074  3056               	movlw	86
  1051  0075  00A0               	movwf	??_main^(0+128)
  1052  0076                     u1017:	
  1053  0076  0BA0               	decfsz	??_main^(0+128),f
  1054  0077  2876               	goto	u1017
  1055  0078  0BA1               	decfsz	(??_main^(0+128)+1),f
  1056  0079  2876               	goto	u1017
  1057  007A  0BA2               	decfsz	(??_main^(0+128)+2),f
  1058  007B  2876               	goto	u1017
  1059  007C  287D               	nop2
  1060  007D  2859               	goto	l2231
  1061  007E                     __end_of_main:	
  1062                           ;OBC2_main.c: 59: }
  1063                           ;OBC2_main.c: 60: return 0;
  1064                           ;	Return value of _main is never used
  1065                           
  1066                           
  1067                           	psect	text1
  1068  0243                     __ptext1:	
  1069 ;; *************** function _uart_init *****************
  1070 ;; Defined at:
  1071 ;;		line 34 in file "uart_serial.c"
  1072 ;; Parameters:    Size  Location     Type
  1073 ;;		None
  1074 ;; Auto vars:     Size  Location     Type
  1075 ;;		None
  1076 ;; Return value:  Size  Location     Type
  1077 ;;		None               void
  1078 ;; Registers used:
  1079 ;;		wreg
  1080 ;; Tracked objects:
  1081 ;;		On entry : 0/0
  1082 ;;		On exit  : 0/0
  1083 ;;		Unchanged: 0/0
  1084 ;; Data sizes:     COMMON   BANK0   BANK1   BANK3   BANK2
  1085 ;;      Params:         0       0       0       0       0
  1086 ;;      Locals:         0       0       0       0       0
  1087 ;;      Temps:          0       0       0       0       0
  1088 ;;      Totals:         0       0       0       0       0
  1089 ;;Total ram usage:        0 bytes
  1090 ;; Hardware stack levels used:    1
  1091 ;; Hardware stack levels required when called:    5
  1092 ;; This function calls:
  1093 ;;		Nothing
  1094 ;; This function is called by:
  1095 ;;		_main
  1096 ;;		_OBC1
  1097 ;; This function uses a non-reentrant model
  1098 ;;
  1099                           
  1100                           
  1101                           ;psect for function _uart_init
  1102  0243                     _uart_init:	
  1103                           
  1104                           ;uart_serial.c: 36: TRISCbits.TRISC7 = 1;
  1105                           
  1106                           ;incstack = 0
  1107                           ; Regs used in _uart_init: [wreg]
  1108  0243  1683               	bsf	3,5	;RP0=1, select bank1
  1109  0244  1303               	bcf	3,6	;RP1=0, select bank1
  1110  0245  1787               	bsf	7,7	;volatile
  1111                           
  1112                           ;uart_serial.c: 37: SPBRG = ((unsigned char)(((20000000 / 16) / (9600)) - 1));
  1113  0246  3081               	movlw	129
  1114  0247  0099               	movwf	25	;volatile
  1115                           
  1116                           ;uart_serial.c: 38: TXSTA = (0x00 | 0x04 | 0x20);
  1117  0248  3024               	movlw	36
  1118  0249  0098               	movwf	24	;volatile
  1119                           
  1120                           ;uart_serial.c: 39: RCSTA = (0x00 | 0x90);
  1121  024A  3090               	movlw	144
  1122  024B  1283               	bcf	3,5	;RP0=0, select bank0
  1123  024C  1303               	bcf	3,6	;RP1=0, select bank0
  1124  024D  0098               	movwf	24	;volatile
  1125  024E  0008               	return
  1126  024F                     __end_of_uart_init:	
  1127                           
  1128                           	psect	text2
  1129  0220                     __ptext2:	
  1130 ;; *************** function _OBC1_RESET_init *****************
  1131 ;; Defined at:
  1132 ;;		line 38 in file "OBC2_app.c"
  1133 ;; Parameters:    Size  Location     Type
  1134 ;;		None
  1135 ;; Auto vars:     Size  Location     Type
  1136 ;;  nin             2   15[BANK0 ] PTR unsigned char 
  1137 ;;		 -> RAM(512), 
  1138 ;; Return value:  Size  Location     Type
  1139 ;;		None               void
  1140 ;; Registers used:
  1141 ;;		wreg, fsr0l, fsr0h
  1142 ;; Tracked objects:
  1143 ;;		On entry : 0/0
  1144 ;;		On exit  : 0/0
  1145 ;;		Unchanged: 0/0
  1146 ;; Data sizes:     COMMON   BANK0   BANK1   BANK3   BANK2
  1147 ;;      Params:         0       0       0       0       0
  1148 ;;      Locals:         0       2       0       0       0
  1149 ;;      Temps:          0       0       0       0       0
  1150 ;;      Totals:         0       2       0       0       0
  1151 ;;Total ram usage:        2 bytes
  1152 ;; Hardware stack levels used:    1
  1153 ;; Hardware stack levels required when called:    5
  1154 ;; This function calls:
  1155 ;;		Nothing
  1156 ;; This function is called by:
  1157 ;;		_main
  1158 ;; This function uses a non-reentrant model
  1159 ;;
  1160                           
  1161                           
  1162                           ;psect for function _OBC1_RESET_init
  1163  0220                     _OBC1_RESET_init:	
  1164                           
  1165                           ;OBC2_app.c: 40: TRISDbits.TRISD2 = 1;
  1166                           
  1167                           ;incstack = 0
  1168                           ; Regs used in _OBC1_RESET_init: [wregfsr0]
  1169  0220  1683               	bsf	3,5	;RP0=1, select bank1
  1170  0221  1303               	bcf	3,6	;RP1=0, select bank1
  1171  0222  1508               	bsf	8,2	;volatile
  1172                           
  1173                           ;OBC2_app.c: 41: uint8_t *nin;
  1174                           ;OBC2_app.c: 42: nin = 0x09;
  1175  0223  3009               	movlw	9
  1176  0224  1283               	bcf	3,5	;RP0=0, select bank0
  1177  0225  1303               	bcf	3,6	;RP1=0, select bank0
  1178  0226  00DF               	movwf	OBC1_RESET_init@nin
  1179  0227  3000               	movlw	0
  1180  0228  00E0               	movwf	OBC1_RESET_init@nin+1
  1181                           
  1182                           ;OBC2_app.c: 45: TRISEbits.TRISE0 = 0;
  1183  0229  1683               	bsf	3,5	;RP0=1, select bank1
  1184  022A  1303               	bcf	3,6	;RP1=0, select bank1
  1185  022B  1009               	bcf	9,0	;volatile
  1186                           
  1187                           ;OBC2_app.c: 48: *nin = 0x01;
  1188  022C  1283               	bcf	3,5	;RP0=0, select bank0
  1189  022D  1303               	bcf	3,6	;RP1=0, select bank0
  1190  022E  085F               	movf	OBC1_RESET_init@nin,w
  1191  022F  0084               	movwf	4
  1192  0230  1383               	bcf	3,7
  1193  0231  1860               	btfsc	OBC1_RESET_init@nin+1,0
  1194  0232  1783               	bsf	3,7
  1195  0233  3001               	movlw	1
  1196  0234  0080               	movwf	0
  1197  0235  0008               	return
  1198  0236                     __end_of_OBC1_RESET_init:	
  1199                           
  1200                           	psect	text3
  1201  0236                     __ptext3:	
  1202 ;; *************** function _I2C_init *****************
  1203 ;; Defined at:
  1204 ;;		line 21 in file "i2c.c"
  1205 ;; Parameters:    Size  Location     Type
  1206 ;;		None
  1207 ;; Auto vars:     Size  Location     Type
  1208 ;;		None
  1209 ;; Return value:  Size  Location     Type
  1210 ;;		None               void
  1211 ;; Registers used:
  1212 ;;		None
  1213 ;; Tracked objects:
  1214 ;;		On entry : 0/0
  1215 ;;		On exit  : 0/0
  1216 ;;		Unchanged: 0/0
  1217 ;; Data sizes:     COMMON   BANK0   BANK1   BANK3   BANK2
  1218 ;;      Params:         0       0       0       0       0
  1219 ;;      Locals:         0       0       0       0       0
  1220 ;;      Temps:          0       0       0       0       0
  1221 ;;      Totals:         0       0       0       0       0
  1222 ;;Total ram usage:        0 bytes
  1223 ;; Hardware stack levels used:    1
  1224 ;; Hardware stack levels required when called:    5
  1225 ;; This function calls:
  1226 ;;		Nothing
  1227 ;; This function is called by:
  1228 ;;		_main
  1229 ;; This function uses a non-reentrant model
  1230 ;;
  1231                           
  1232                           
  1233                           ;psect for function _I2C_init
  1234  0236                     _I2C_init:	
  1235                           
  1236                           ;i2c.c: 23: TRISDbits.TRISD5 = 0;
  1237                           
  1238                           ;incstack = 0
  1239                           ; Regs used in _I2C_init: []
  1240  0236  1683               	bsf	3,5	;RP0=1, select bank1
  1241  0237  1303               	bcf	3,6	;RP1=0, select bank1
  1242  0238  1288               	bcf	8,5	;volatile
  1243                           
  1244                           ;i2c.c: 24: PORTDbits.RD5 = 1;
  1245  0239  1283               	bcf	3,5	;RP0=0, select bank0
  1246  023A  1303               	bcf	3,6	;RP1=0, select bank0
  1247  023B  1688               	bsf	8,5	;volatile
  1248                           
  1249                           ;i2c.c: 25: TRISDbits.TRISD4 = 1;
  1250  023C  1683               	bsf	3,5	;RP0=1, select bank1
  1251  023D  1303               	bcf	3,6	;RP1=0, select bank1
  1252  023E  1608               	bsf	8,4	;volatile
  1253                           
  1254                           ;i2c.c: 26: PORTDbits.RD4 = 1;
  1255  023F  1283               	bcf	3,5	;RP0=0, select bank0
  1256  0240  1303               	bcf	3,6	;RP1=0, select bank0
  1257  0241  1608               	bsf	8,4	;volatile
  1258  0242  0008               	return
  1259  0243                     __end_of_I2C_init:	
  1260                           
  1261                           	psect	text4
  1262  0206                     __ptext4:	
  1263 ;; *************** function _I2Ctemp *****************
  1264 ;; Defined at:
  1265 ;;		line 74 in file "OBC2_main.c"
  1266 ;; Parameters:    Size  Location     Type
  1267 ;;		None
  1268 ;; Auto vars:     Size  Location     Type
  1269 ;;		None
  1270 ;; Return value:  Size  Location     Type
  1271 ;;		None               void
  1272 ;; Registers used:
  1273 ;;		wreg, fsr0l, fsr0h, status,2, status,0, btemp+1, pclath, cstack
  1274 ;; Tracked objects:
  1275 ;;		On entry : 0/0
  1276 ;;		On exit  : 0/0
  1277 ;;		Unchanged: 0/0
  1278 ;; Data sizes:     COMMON   BANK0   BANK1   BANK3   BANK2
  1279 ;;      Params:         0       0       0       0       0
  1280 ;;      Locals:         0       0       0       0       0
  1281 ;;      Temps:          0       4       0       0       0
  1282 ;;      Totals:         0       4       0       0       0
  1283 ;;Total ram usage:        4 bytes
  1284 ;; Hardware stack levels used:    1
  1285 ;; Hardware stack levels required when called:    4
  1286 ;; This function calls:
  1287 ;;		_interrupt_disable
  1288 ;;		_trans_I2Ctemp
  1289 ;; This function is called by:
  1290 ;;		Interrupt level 1
  1291 ;; This function uses a non-reentrant model
  1292 ;;
  1293                           
  1294                           
  1295                           ;psect for function _I2Ctemp
  1296  0206                     _I2Ctemp:	
  1297                           
  1298                           ;OBC2_main.c: 76: if(PIR1bits.RCIF == 1)
  1299  0206  1E8C               	btfss	12,5	;volatile
  1300  0207  2A13               	goto	i1l469
  1301                           
  1302                           ;OBC2_main.c: 77: {
  1303                           ;OBC2_main.c: 78: PIR1bits.RCIF == 0;
  1304  0208  080C               	movf	12,w	;volatile
  1305                           
  1306                           ;OBC2_main.c: 79: interrupt_disable();
  1307  0209  120A  118A  226E  120A  118A  	fcall	_interrupt_disable
  1308                           
  1309                           ;OBC2_main.c: 80: trans_I2Ctemp();
  1310  020E  120A  118A  2166  120A  118A  	fcall	_trans_I2Ctemp
  1311  0213                     i1l469:	
  1312  0213  1283               	bcf	3,5	;RP0=0, select bank0
  1313  0214  1303               	bcf	3,6	;RP1=0, select bank0
  1314  0215  085E               	movf	??_I2Ctemp+3,w
  1315  0216  00FF               	movwf	127
  1316  0217  085D               	movf	??_I2Ctemp+2,w
  1317  0218  008A               	movwf	10
  1318  0219  085C               	movf	??_I2Ctemp+1,w
  1319  021A  0084               	movwf	4
  1320  021B  0E5B               	swapf	??_I2Ctemp^0,w
  1321  021C  0083               	movwf	3
  1322  021D  0EFE               	swapf	126,f
  1323  021E  0E7E               	swapf	126,w
  1324  021F  0009               	retfie
  1325  0220                     __end_of_I2Ctemp:	
  1326                           
  1327                           	psect	intentry
  1328  0004                     __pintentry:	
  1329                           ;incstack = 0
  1330                           ; Regs used in _I2Ctemp: [wreg-fsr0h+status,2+status,0+btemp+1+pclath+cstack]
  1331                           
  1332  0004                     interrupt_function:	
  1333  007E                     saved_w	set	btemp
  1334  0004  00FE               	movwf	btemp
  1335  0005  0E03               	swapf	3,w
  1336  0006  1283               	bcf	3,5	;RP0=0, select bank0
  1337  0007  1303               	bcf	3,6	;RP1=0, select bank0
  1338  0008  00DB               	movwf	??_I2Ctemp
  1339  0009  0804               	movf	4,w
  1340  000A  00DC               	movwf	??_I2Ctemp+1
  1341  000B  080A               	movf	10,w
  1342  000C  00DD               	movwf	??_I2Ctemp+2
  1343  000D  087F               	movf	btemp+1,w
  1344  000E  00DE               	movwf	??_I2Ctemp+3
  1345  000F  120A  118A  2A06   	ljmp	_I2Ctemp
  1346                           
  1347                           	psect	text5
  1348  0166                     __ptext5:	
  1349 ;; *************** function _trans_I2Ctemp *****************
  1350 ;; Defined at:
  1351 ;;		line 151 in file "OBC2_app.c"
  1352 ;; Parameters:    Size  Location     Type
  1353 ;;		None
  1354 ;; Auto vars:     Size  Location     Type
  1355 ;;  data            2    9[BANK0 ] unsigned char [2]
  1356 ;; Return value:  Size  Location     Type
  1357 ;;		None               void
  1358 ;; Registers used:
  1359 ;;		wreg, fsr0l, fsr0h, status,2, status,0, btemp+1, pclath, cstack
  1360 ;; Tracked objects:
  1361 ;;		On entry : 0/0
  1362 ;;		On exit  : 0/0
  1363 ;;		Unchanged: 0/0
  1364 ;; Data sizes:     COMMON   BANK0   BANK1   BANK3   BANK2
  1365 ;;      Params:         0       0       0       0       0
  1366 ;;      Locals:         0       2       0       0       0
  1367 ;;      Temps:          0       3       0       0       0
  1368 ;;      Totals:         0       5       0       0       0
  1369 ;;Total ram usage:        5 bytes
  1370 ;; Hardware stack levels used:    1
  1371 ;; Hardware stack levels required when called:    3
  1372 ;; This function calls:
  1373 ;;		_ADT_Receive
  1374 ;;		_putch
  1375 ;; This function is called by:
  1376 ;;		_I2Ctemp
  1377 ;; This function uses a non-reentrant model
  1378 ;;
  1379                           
  1380                           
  1381                           ;psect for function _trans_I2Ctemp
  1382  0166                     _trans_I2Ctemp:	
  1383                           
  1384                           ;OBC2_app.c: 153: uint8_t data[2];
  1385                           ;OBC2_app.c: 154: ADT_Receive(0x00, &data[0], 2);
  1386                           
  1387                           ;incstack = 0
  1388                           ; Regs used in _trans_I2Ctemp: [wreg-fsr0h+status,2+status,0+btemp+1+pclath+cstack]
  1389  0166  3059               	movlw	(low (trans_I2Ctemp@data| 0))& (0+255)
  1390  0167  1283               	bcf	3,5	;RP0=0, select bank0
  1391  0168  1303               	bcf	3,6	;RP1=0, select bank0
  1392  0169  00D6               	movwf	??_trans_I2Ctemp
  1393  016A  0856               	movf	??_trans_I2Ctemp,w
  1394  016B  00D0               	movwf	ADT_Receive@data
  1395  016C  3002               	movlw	2
  1396  016D  00D7               	movwf	??_trans_I2Ctemp+1
  1397  016E  0857               	movf	??_trans_I2Ctemp+1,w
  1398  016F  00D1               	movwf	ADT_Receive@kosu
  1399  0170  3000               	movlw	0
  1400  0171  120A  118A  21A3  120A  118A  	fcall	_ADT_Receive
  1401                           
  1402                           ;OBC2_app.c: 155: _delay((unsigned long)((3000)*(20000000/4000.0)));
  1403  0176  304D               	movlw	77
  1404  0177  1283               	bcf	3,5	;RP0=0, select bank0
  1405  0178  1303               	bcf	3,6	;RP1=0, select bank0
  1406  0179  00D8               	movwf	??_trans_I2Ctemp+2
  1407  017A  3019               	movlw	25
  1408  017B  00D7               	movwf	??_trans_I2Ctemp+1
  1409  017C  309A               	movlw	154
  1410  017D  00D6               	movwf	??_trans_I2Ctemp
  1411  017E                     u102_27:	
  1412  017E  0BD6               	decfsz	??_trans_I2Ctemp,f
  1413  017F  297E               	goto	u102_27
  1414  0180  0BD7               	decfsz	??_trans_I2Ctemp+1,f
  1415  0181  297E               	goto	u102_27
  1416  0182  0BD8               	decfsz	??_trans_I2Ctemp+2,f
  1417  0183  297E               	goto	u102_27
  1418  0184  2985               	nop2
  1419                           
  1420                           ;OBC2_app.c: 156: putch(data[0]);
  1421  0185  1283               	bcf	3,5	;RP0=0, select bank0
  1422  0186  1303               	bcf	3,6	;RP1=0, select bank0
  1423  0187  0859               	movf	trans_I2Ctemp@data,w
  1424  0188  120A  118A  225F  120A  118A  	fcall	_putch
  1425                           
  1426                           ;OBC2_app.c: 157: _delay((unsigned long)((1000)*(20000000/4000.0)));
  1427  018D  301A               	movlw	26
  1428  018E  1283               	bcf	3,5	;RP0=0, select bank0
  1429  018F  1303               	bcf	3,6	;RP1=0, select bank0
  1430  0190  00D8               	movwf	??_trans_I2Ctemp+2
  1431  0191  305E               	movlw	94
  1432  0192  00D7               	movwf	??_trans_I2Ctemp+1
  1433  0193  3086               	movlw	134
  1434  0194  00D6               	movwf	??_trans_I2Ctemp
  1435  0195                     u103_27:	
  1436  0195  0BD6               	decfsz	??_trans_I2Ctemp,f
  1437  0196  2995               	goto	u103_27
  1438  0197  0BD7               	decfsz	??_trans_I2Ctemp+1,f
  1439  0198  2995               	goto	u103_27
  1440  0199  0BD8               	decfsz	??_trans_I2Ctemp+2,f
  1441  019A  2995               	goto	u103_27
  1442  019B  0000               	nop
  1443                           
  1444                           ;OBC2_app.c: 158: putch(data[1]);
  1445  019C  1283               	bcf	3,5	;RP0=0, select bank0
  1446  019D  1303               	bcf	3,6	;RP1=0, select bank0
  1447  019E  085A               	movf	trans_I2Ctemp@data+1,w
  1448  019F  120A  118A  225F   	fcall	_putch
  1449  01A2  0008               	return
  1450  01A3                     __end_of_trans_I2Ctemp:	
  1451                           
  1452                           	psect	text6
  1453  025F                     __ptext6:	
  1454 ;; *************** function _putch *****************
  1455 ;; Defined at:
  1456 ;;		line 53 in file "uart_serial.c"
  1457 ;; Parameters:    Size  Location     Type
  1458 ;;  byte            1    wreg     unsigned char 
  1459 ;; Auto vars:     Size  Location     Type
  1460 ;;  byte            1    0[COMMON] unsigned char 
  1461 ;; Return value:  Size  Location     Type
  1462 ;;		None               void
  1463 ;; Registers used:
  1464 ;;		wreg
  1465 ;; Tracked objects:
  1466 ;;		On entry : 0/0
  1467 ;;		On exit  : 0/0
  1468 ;;		Unchanged: 0/0
  1469 ;; Data sizes:     COMMON   BANK0   BANK1   BANK3   BANK2
  1470 ;;      Params:         0       0       0       0       0
  1471 ;;      Locals:         1       0       0       0       0
  1472 ;;      Temps:          0       0       0       0       0
  1473 ;;      Totals:         1       0       0       0       0
  1474 ;;Total ram usage:        1 bytes
  1475 ;; Hardware stack levels used:    1
  1476 ;; This function calls:
  1477 ;;		Nothing
  1478 ;; This function is called by:
  1479 ;;		_trans_I2Ctemp
  1480 ;;		_command
  1481 ;;		_put_string
  1482 ;; This function uses a non-reentrant model
  1483 ;;
  1484                           
  1485                           
  1486                           ;psect for function _putch
  1487  025F                     _putch:	
  1488                           
  1489                           ;incstack = 0
  1490                           ; Regs used in _putch: [wreg]
  1491                           ;putch@byte stored from wreg
  1492  025F  00F0               	movwf	putch@byte
  1493  0260                     i1l389:	
  1494                           ;uart_serial.c: 56: {
  1495                           ;uart_serial.c: 57: ;
  1496                           
  1497                           ;uart_serial.c: 55: while(!TXIF)
  1498                           
  1499  0260  1283               	bcf	3,5	;RP0=0, select bank0
  1500  0261  1303               	bcf	3,6	;RP1=0, select bank0
  1501  0262  1E0C               	btfss	12,4	;volatile
  1502  0263  2A60               	goto	i1l389
  1503                           
  1504                           ;uart_serial.c: 58: }
  1505                           ;uart_serial.c: 59: TXREG = byte;
  1506  0264  0870               	movf	putch@byte,w
  1507  0265  0099               	movwf	25	;volatile
  1508  0266  0008               	return
  1509  0267                     __end_of_putch:	
  1510                           
  1511                           	psect	text7
  1512  01A3                     __ptext7:	
  1513 ;; *************** function _ADT_Receive *****************
  1514 ;; Defined at:
  1515 ;;		line 84 in file "tempADT.c"
  1516 ;; Parameters:    Size  Location     Type
  1517 ;;  reg_adrs        1    wreg     unsigned char 
  1518 ;;  data            1    0[BANK0 ] PTR unsigned char 
  1519 ;;		 -> ADT_Read@data(2), ADT_ActionMode@data(2), trans_I2Ctemp@data(2), 
  1520 ;;  kosu            1    1[BANK0 ] unsigned char 
  1521 ;; Auto vars:     Size  Location     Type
  1522 ;;  reg_adrs        1    4[BANK0 ] unsigned char 
  1523 ;;  ans             1    5[BANK0 ] unsigned char 
  1524 ;;  i               1    0        unsigned char 
  1525 ;; Return value:  Size  Location     Type
  1526 ;;                  1    wreg      unsigned char 
  1527 ;; Registers used:
  1528 ;;		wreg, fsr0l, fsr0h, status,2, status,0, btemp+1, pclath, cstack
  1529 ;; Tracked objects:
  1530 ;;		On entry : 0/0
  1531 ;;		On exit  : 0/0
  1532 ;;		Unchanged: 0/0
  1533 ;; Data sizes:     COMMON   BANK0   BANK1   BANK3   BANK2
  1534 ;;      Params:         0       2       0       0       0
  1535 ;;      Locals:         0       2       0       0       0
  1536 ;;      Temps:          0       2       0       0       0
  1537 ;;      Totals:         0       6       0       0       0
  1538 ;;Total ram usage:        6 bytes
  1539 ;; Hardware stack levels used:    1
  1540 ;; Hardware stack levels required when called:    2
  1541 ;; This function calls:
  1542 ;;		_I2C_GetData
  1543 ;;		_I2C_Send
  1544 ;; This function is called by:
  1545 ;;		_trans_I2Ctemp
  1546 ;;		_ADT_ActionMode
  1547 ;;		_ADT_Read
  1548 ;; This function uses a non-reentrant model
  1549 ;;
  1550                           
  1551                           
  1552                           ;psect for function _ADT_Receive
  1553  01A3                     _ADT_Receive:	
  1554                           
  1555                           ;incstack = 0
  1556                           ; Regs used in _ADT_Receive: [wreg-fsr0h+status,2+status,0+btemp+1+pclath+cstack]
  1557                           ;ADT_Receive@reg_adrs stored from wreg
  1558  01A3  1283               	bcf	3,5	;RP0=0, select bank0
  1559  01A4  1303               	bcf	3,6	;RP1=0, select bank0
  1560  01A5  00D4               	movwf	ADT_Receive@reg_adrs
  1561                           
  1562                           ;tempADT.c: 86: unsigned char ans, i;
  1563                           ;tempADT.c: 88: I2C_Send(0x48, reg_adrs);
  1564  01A6  0854               	movf	ADT_Receive@reg_adrs,w
  1565  01A7  00D2               	movwf	??_ADT_Receive
  1566  01A8  0852               	movf	??_ADT_Receive,w
  1567  01A9  00F7               	movwf	I2C_Send@data
  1568  01AA  3048               	movlw	72
  1569  01AB  120A  118A  21CE  120A  118A  	fcall	_I2C_Send
  1570                           
  1571                           ;tempADT.c: 89: ans = 0;
  1572  01B0  1283               	bcf	3,5	;RP0=0, select bank0
  1573  01B1  1303               	bcf	3,6	;RP1=0, select bank0
  1574  01B2  01D5               	clrf	ADT_Receive@ans
  1575                           
  1576                           ;tempADT.c: 91: if(ans == 0){
  1577  01B3  0855               	movf	ADT_Receive@ans,w
  1578  01B4  1D03               	btfss	3,2
  1579  01B5  29C8               	goto	i1l1729
  1580                           
  1581                           ;tempADT.c: 92: I2C_GetData(0x48, data, kosu);
  1582  01B6  0850               	movf	ADT_Receive@data,w
  1583  01B7  00D2               	movwf	??_ADT_Receive
  1584  01B8  0852               	movf	??_ADT_Receive,w
  1585  01B9  00F7               	movwf	I2C_GetData@Buffer
  1586  01BA  0851               	movf	ADT_Receive@kosu,w
  1587  01BB  00D3               	movwf	??_ADT_Receive+1
  1588  01BC  0853               	movf	??_ADT_Receive+1,w
  1589  01BD  00F8               	movwf	I2C_GetData@CNT
  1590  01BE  3048               	movlw	72
  1591  01BF  120A  118A  2121  120A  118A  	fcall	_I2C_GetData
  1592                           
  1593                           ;tempADT.c: 93: ans = 0;
  1594  01C4  1283               	bcf	3,5	;RP0=0, select bank0
  1595  01C5  1303               	bcf	3,6	;RP1=0, select bank0
  1596  01C6  01D5               	clrf	ADT_Receive@ans
  1597                           
  1598                           ;tempADT.c: 94: } else ans = 5;
  1599  01C7  29CC               	goto	i1l356
  1600  01C8                     i1l1729:	
  1601  01C8  3005               	movlw	5
  1602  01C9  00D2               	movwf	??_ADT_Receive
  1603  01CA  0852               	movf	??_ADT_Receive,w
  1604  01CB  00D5               	movwf	ADT_Receive@ans
  1605  01CC                     i1l356:	
  1606                           
  1607                           ;tempADT.c: 96: return ans;
  1608  01CC  0855               	movf	ADT_Receive@ans,w
  1609  01CD  0008               	return
  1610  01CE                     __end_of_ADT_Receive:	
  1611                           
  1612                           	psect	text8
  1613  01CE                     __ptext8:	
  1614 ;; *************** function _I2C_Send *****************
  1615 ;; Defined at:
  1616 ;;		line 78 in file "i2c.c"
  1617 ;; Parameters:    Size  Location     Type
  1618 ;;  slave_adr       1    wreg     unsigned char 
  1619 ;;  data            1    7[COMMON] unsigned char 
  1620 ;; Auto vars:     Size  Location     Type
  1621 ;;  slave_adr       1   10[COMMON] unsigned char 
  1622 ;;  adr             1   11[COMMON] unsigned char 
  1623 ;; Return value:  Size  Location     Type
  1624 ;;		None               void
  1625 ;; Registers used:
  1626 ;;		wreg, status,2, status,0, btemp+1, pclath, cstack
  1627 ;; Tracked objects:
  1628 ;;		On entry : 0/0
  1629 ;;		On exit  : 0/0
  1630 ;;		Unchanged: 0/0
  1631 ;; Data sizes:     COMMON   BANK0   BANK1   BANK3   BANK2
  1632 ;;      Params:         1       0       0       0       0
  1633 ;;      Locals:         2       0       0       0       0
  1634 ;;      Temps:          2       0       0       0       0
  1635 ;;      Totals:         5       0       0       0       0
  1636 ;;Total ram usage:        5 bytes
  1637 ;; Hardware stack levels used:    1
  1638 ;; Hardware stack levels required when called:    1
  1639 ;; This function calls:
  1640 ;;		_I2C_Out
  1641 ;;		_I2C_Start
  1642 ;;		_I2C_Stop
  1643 ;; This function is called by:
  1644 ;;		_ADT_Receive
  1645 ;;		_ADT_Send
  1646 ;; This function uses a non-reentrant model
  1647 ;;
  1648                           
  1649                           
  1650                           ;psect for function _I2C_Send
  1651  01CE                     _I2C_Send:	
  1652                           
  1653                           ;incstack = 0
  1654                           ; Regs used in _I2C_Send: [wreg+status,2+status,0+btemp+1+pclath+cstack]
  1655                           ;I2C_Send@slave_adr stored from wreg
  1656  01CE  00FA               	movwf	I2C_Send@slave_adr
  1657                           
  1658                           ;i2c.c: 80: unsigned char adr = 0x00;
  1659  01CF  01FB               	clrf	I2C_Send@adr
  1660                           
  1661                           ;i2c.c: 81: adr = slave_adr << 1;
  1662  01D0  087A               	movf	I2C_Send@slave_adr,w
  1663  01D1  00F8               	movwf	??_I2C_Send
  1664  01D2  0778               	addwf	??_I2C_Send,w
  1665  01D3  00F9               	movwf	??_I2C_Send+1
  1666  01D4  0879               	movf	??_I2C_Send+1,w
  1667  01D5  00FB               	movwf	I2C_Send@adr
  1668                           
  1669                           ;i2c.c: 83: I2C_Start();
  1670  01D6  120A  118A  2267  120A  118A  	fcall	_I2C_Start
  1671                           
  1672                           ;i2c.c: 84: I2C_Out(adr);
  1673  01DB  087B               	movf	I2C_Send@adr,w
  1674  01DC  120A  118A  20D1  120A  118A  	fcall	_I2C_Out
  1675                           
  1676                           ;i2c.c: 86: I2C_Out(data);
  1677  01E1  0877               	movf	I2C_Send@data,w
  1678  01E2  120A  118A  20D1  120A  118A  	fcall	_I2C_Out
  1679                           
  1680                           ;i2c.c: 87: I2C_Stop();
  1681  01E7  120A  118A  21EB   	fcall	_I2C_Stop
  1682  01EA  0008               	return
  1683  01EB                     __end_of_I2C_Send:	
  1684                           
  1685                           	psect	text9
  1686  0121                     __ptext9:	
  1687 ;; *************** function _I2C_GetData *****************
  1688 ;; Defined at:
  1689 ;;		line 121 in file "i2c.c"
  1690 ;; Parameters:    Size  Location     Type
  1691 ;;  slave_adr       1    wreg     unsigned char 
  1692 ;;  Buffer          1    7[COMMON] PTR unsigned char 
  1693 ;;		 -> ADT_Read@data(2), ADT_ActionMode@data(2), trans_I2Ctemp@data(2), 
  1694 ;;  CNT             1    8[COMMON] unsigned char 
  1695 ;; Auto vars:     Size  Location     Type
  1696 ;;  slave_adr       1   11[COMMON] unsigned char 
  1697 ;;  i               1   13[COMMON] unsigned char 
  1698 ;;  adr             1   12[COMMON] unsigned char 
  1699 ;; Return value:  Size  Location     Type
  1700 ;;		None               void
  1701 ;; Registers used:
  1702 ;;		wreg, fsr0l, fsr0h, status,2, status,0, btemp+1, pclath, cstack
  1703 ;; Tracked objects:
  1704 ;;		On entry : 0/0
  1705 ;;		On exit  : 0/0
  1706 ;;		Unchanged: 0/0
  1707 ;; Data sizes:     COMMON   BANK0   BANK1   BANK3   BANK2
  1708 ;;      Params:         2       0       0       0       0
  1709 ;;      Locals:         3       0       0       0       0
  1710 ;;      Temps:          2       0       0       0       0
  1711 ;;      Totals:         7       0       0       0       0
  1712 ;;Total ram usage:        7 bytes
  1713 ;; Hardware stack levels used:    1
  1714 ;; Hardware stack levels required when called:    1
  1715 ;; This function calls:
  1716 ;;		_I2C_Out
  1717 ;;		_I2C_Rcv
  1718 ;;		_I2C_Start
  1719 ;;		_I2C_Stop
  1720 ;; This function is called by:
  1721 ;;		_ADT_Receive
  1722 ;; This function uses a non-reentrant model
  1723 ;;
  1724                           
  1725                           
  1726                           ;psect for function _I2C_GetData
  1727  0121                     _I2C_GetData:	
  1728                           
  1729                           ;incstack = 0
  1730                           ; Regs used in _I2C_GetData: [wreg-fsr0h+status,2+status,0+btemp+1+pclath+cstack]
  1731                           ;I2C_GetData@slave_adr stored from wreg
  1732  0121  00FB               	movwf	I2C_GetData@slave_adr
  1733                           
  1734                           ;i2c.c: 123: unsigned char i = 0;
  1735  0122  01FD               	clrf	I2C_GetData@i
  1736                           
  1737                           ;i2c.c: 124: unsigned char adr = 0x00;
  1738  0123  01FC               	clrf	I2C_GetData@adr
  1739                           
  1740                           ;i2c.c: 126: adr = slave_adr << 1;
  1741  0124  087B               	movf	I2C_GetData@slave_adr,w
  1742  0125  00F9               	movwf	??_I2C_GetData
  1743  0126  0779               	addwf	??_I2C_GetData,w
  1744  0127  00FA               	movwf	??_I2C_GetData+1
  1745  0128  087A               	movf	??_I2C_GetData+1,w
  1746  0129  00FC               	movwf	I2C_GetData@adr
  1747                           
  1748                           ;i2c.c: 127: adr = adr | 0x01;
  1749  012A  087C               	movf	I2C_GetData@adr,w
  1750  012B  3801               	iorlw	1
  1751  012C  00F9               	movwf	??_I2C_GetData
  1752  012D  0879               	movf	??_I2C_GetData,w
  1753  012E  00FC               	movwf	I2C_GetData@adr
  1754                           
  1755                           ;i2c.c: 129: I2C_Start();
  1756  012F  120A  118A  2267  120A  118A  	fcall	_I2C_Start
  1757                           
  1758                           ;i2c.c: 130: I2C_Out(adr);
  1759  0134  087C               	movf	I2C_GetData@adr,w
  1760  0135  120A  118A  20D1  120A  118A  	fcall	_I2C_Out
  1761                           
  1762                           ;i2c.c: 132: for(i=0; i<CNT; i++){
  1763  013A  01FD               	clrf	I2C_GetData@i
  1764  013B                     i1l1703:	
  1765  013B  0878               	movf	I2C_GetData@CNT,w
  1766  013C  027D               	subwf	I2C_GetData@i,w
  1767  013D  1803               	btfsc	3,0
  1768  013E  2953               	goto	i1l1705
  1769                           
  1770                           ;i2c.c: 133: Buffer[i] = I2C_Rcv(0);
  1771  013F  3000               	movlw	0
  1772  0140  120A  118A  207E  120A  118A  	fcall	_I2C_Rcv
  1773  0145  00F9               	movwf	??_I2C_GetData
  1774  0146  087D               	movf	I2C_GetData@i,w
  1775  0147  0777               	addwf	I2C_GetData@Buffer,w
  1776  0148  00FA               	movwf	??_I2C_GetData+1
  1777  0149  087A               	movf	??_I2C_GetData+1,w
  1778  014A  0084               	movwf	4
  1779  014B  0879               	movf	??_I2C_GetData,w
  1780  014C  1383               	bcf	3,7	;select IRP bank0
  1781  014D  0080               	movwf	0
  1782  014E  3001               	movlw	1
  1783  014F  00F9               	movwf	??_I2C_GetData
  1784  0150  0879               	movf	??_I2C_GetData,w
  1785  0151  07FD               	addwf	I2C_GetData@i,f
  1786  0152  293B               	goto	i1l1703
  1787  0153                     i1l1705:	
  1788                           
  1789                           ;i2c.c: 134: }
  1790                           ;i2c.c: 135: Buffer[i] = I2C_Rcv(1);
  1791  0153  3001               	movlw	1
  1792  0154  120A  118A  207E  120A  118A  	fcall	_I2C_Rcv
  1793  0159  00F9               	movwf	??_I2C_GetData
  1794  015A  087D               	movf	I2C_GetData@i,w
  1795  015B  0777               	addwf	I2C_GetData@Buffer,w
  1796  015C  00FA               	movwf	??_I2C_GetData+1
  1797  015D  087A               	movf	??_I2C_GetData+1,w
  1798  015E  0084               	movwf	4
  1799  015F  0879               	movf	??_I2C_GetData,w
  1800  0160  1383               	bcf	3,7	;select IRP bank0
  1801  0161  0080               	movwf	0
  1802                           
  1803                           ;i2c.c: 136: I2C_Stop();
  1804  0162  120A  118A  21EB   	fcall	_I2C_Stop
  1805  0165  0008               	return
  1806  0166                     __end_of_I2C_GetData:	
  1807                           
  1808                           	psect	text10
  1809  01EB                     __ptext10:	
  1810 ;; *************** function _I2C_Stop *****************
  1811 ;; Defined at:
  1812 ;;		line 36 in file "i2c.c"
  1813 ;; Parameters:    Size  Location     Type
  1814 ;;		None
  1815 ;; Auto vars:     Size  Location     Type
  1816 ;;		None
  1817 ;; Return value:  Size  Location     Type
  1818 ;;		None               void
  1819 ;; Registers used:
  1820 ;;		wreg
  1821 ;; Tracked objects:
  1822 ;;		On entry : 0/0
  1823 ;;		On exit  : 0/0
  1824 ;;		Unchanged: 0/0
  1825 ;; Data sizes:     COMMON   BANK0   BANK1   BANK3   BANK2
  1826 ;;      Params:         0       0       0       0       0
  1827 ;;      Locals:         0       0       0       0       0
  1828 ;;      Temps:          1       0       0       0       0
  1829 ;;      Totals:         1       0       0       0       0
  1830 ;;Total ram usage:        1 bytes
  1831 ;; Hardware stack levels used:    1
  1832 ;; This function calls:
  1833 ;;		Nothing
  1834 ;; This function is called by:
  1835 ;;		_I2C_Send
  1836 ;;		_I2C_GetData
  1837 ;;		_ADT_Send
  1838 ;; This function uses a non-reentrant model
  1839 ;;
  1840                           
  1841                           
  1842                           ;psect for function _I2C_Stop
  1843  01EB                     _I2C_Stop:	
  1844                           
  1845                           ;i2c.c: 38: PORTDbits.RD5 = 0;
  1846                           
  1847                           ;incstack = 0
  1848                           ; Regs used in _I2C_Stop: [wreg]
  1849  01EB  1283               	bcf	3,5	;RP0=0, select bank0
  1850  01EC  1303               	bcf	3,6	;RP1=0, select bank0
  1851  01ED  1288               	bcf	8,5	;volatile
  1852                           
  1853                           ;i2c.c: 39: _delay((unsigned long)((1)*(20000000/4000000.0)));
  1854  01EE  29EF               	nop2	;2 cycle nop
  1855  01EF  29F0               	nop2	;2 cycle nop
  1856  01F0  0000               	nop
  1857                           
  1858                           ;i2c.c: 40: PORTDbits.RD4 = 0;
  1859  01F1  1283               	bcf	3,5	;RP0=0, select bank0
  1860  01F2  1303               	bcf	3,6	;RP1=0, select bank0
  1861  01F3  1208               	bcf	8,4	;volatile
  1862                           
  1863                           ;i2c.c: 41: TRISDbits.TRISD4 = 0;
  1864  01F4  1683               	bsf	3,5	;RP0=1, select bank1
  1865  01F5  1303               	bcf	3,6	;RP1=0, select bank1
  1866  01F6  1208               	bcf	8,4	;volatile
  1867                           
  1868                           ;i2c.c: 42: PORTDbits.RD5 = 1;
  1869  01F7  1283               	bcf	3,5	;RP0=0, select bank0
  1870  01F8  1303               	bcf	3,6	;RP1=0, select bank0
  1871  01F9  1688               	bsf	8,5	;volatile
  1872                           
  1873                           ;i2c.c: 43: _delay((unsigned long)((1)*(20000000/4000000.0)));
  1874  01FA  29FB               	nop2	;2 cycle nop
  1875  01FB  29FC               	nop2	;2 cycle nop
  1876  01FC  0000               	nop
  1877                           
  1878                           ;i2c.c: 44: PORTDbits.RD4 = 1;
  1879  01FD  1283               	bcf	3,5	;RP0=0, select bank0
  1880  01FE  1303               	bcf	3,6	;RP1=0, select bank0
  1881  01FF  1608               	bsf	8,4	;volatile
  1882                           
  1883                           ;i2c.c: 45: _delay((unsigned long)((10)*(20000000/4000000.0)));
  1884  0200  3010               	movlw	16
  1885  0201  00F0               	movwf	??_I2C_Stop
  1886  0202                     u104_27:	
  1887  0202  0BF0               	decfsz	??_I2C_Stop,f
  1888  0203  2A02               	goto	u104_27
  1889  0204  0000               	nop
  1890  0205  0008               	return
  1891  0206                     __end_of_I2C_Stop:	
  1892                           
  1893                           	psect	text11
  1894  0267                     __ptext11:	
  1895 ;; *************** function _I2C_Start *****************
  1896 ;; Defined at:
  1897 ;;		line 29 in file "i2c.c"
  1898 ;; Parameters:    Size  Location     Type
  1899 ;;		None
  1900 ;; Auto vars:     Size  Location     Type
  1901 ;;		None
  1902 ;; Return value:  Size  Location     Type
  1903 ;;		None               void
  1904 ;; Registers used:
  1905 ;;		None
  1906 ;; Tracked objects:
  1907 ;;		On entry : 0/0
  1908 ;;		On exit  : 0/0
  1909 ;;		Unchanged: 0/0
  1910 ;; Data sizes:     COMMON   BANK0   BANK1   BANK3   BANK2
  1911 ;;      Params:         0       0       0       0       0
  1912 ;;      Locals:         0       0       0       0       0
  1913 ;;      Temps:          0       0       0       0       0
  1914 ;;      Totals:         0       0       0       0       0
  1915 ;;Total ram usage:        0 bytes
  1916 ;; Hardware stack levels used:    1
  1917 ;; This function calls:
  1918 ;;		Nothing
  1919 ;; This function is called by:
  1920 ;;		_I2C_Send
  1921 ;;		_I2C_GetData
  1922 ;;		_ADT_Send
  1923 ;; This function uses a non-reentrant model
  1924 ;;
  1925                           
  1926                           
  1927                           ;psect for function _I2C_Start
  1928  0267                     _I2C_Start:	
  1929                           
  1930                           ;i2c.c: 31: PORTDbits.RD4 = 0;
  1931                           
  1932                           ;incstack = 0
  1933                           ; Regs used in _I2C_Start: []
  1934  0267  1283               	bcf	3,5	;RP0=0, select bank0
  1935  0268  1303               	bcf	3,6	;RP1=0, select bank0
  1936  0269  1208               	bcf	8,4	;volatile
  1937                           
  1938                           ;i2c.c: 32: TRISDbits.TRISD4 = 0;
  1939  026A  1683               	bsf	3,5	;RP0=1, select bank1
  1940  026B  1303               	bcf	3,6	;RP1=0, select bank1
  1941  026C  1208               	bcf	8,4	;volatile
  1942  026D  0008               	return
  1943  026E                     __end_of_I2C_Start:	
  1944                           
  1945                           	psect	text12
  1946  007E                     __ptext12:	
  1947 ;; *************** function _I2C_Rcv *****************
  1948 ;; Defined at:
  1949 ;;		line 91 in file "i2c.c"
  1950 ;; Parameters:    Size  Location     Type
  1951 ;;  Ack             1    wreg     unsigned char 
  1952 ;; Auto vars:     Size  Location     Type
  1953 ;;  Ack             1    2[COMMON] unsigned char 
  1954 ;;  i               2    4[COMMON] int 
  1955 ;;  BitPos          1    6[COMMON] unsigned char 
  1956 ;;  data            1    3[COMMON] unsigned char 
  1957 ;; Return value:  Size  Location     Type
  1958 ;;                  1    wreg      unsigned char 
  1959 ;; Registers used:
  1960 ;;		wreg, status,2, status,0, btemp+1
  1961 ;; Tracked objects:
  1962 ;;		On entry : 0/0
  1963 ;;		On exit  : 0/0
  1964 ;;		Unchanged: 0/0
  1965 ;; Data sizes:     COMMON   BANK0   BANK1   BANK3   BANK2
  1966 ;;      Params:         0       0       0       0       0
  1967 ;;      Locals:         5       0       0       0       0
  1968 ;;      Temps:          2       0       0       0       0
  1969 ;;      Totals:         7       0       0       0       0
  1970 ;;Total ram usage:        7 bytes
  1971 ;; Hardware stack levels used:    1
  1972 ;; This function calls:
  1973 ;;		Nothing
  1974 ;; This function is called by:
  1975 ;;		_I2C_GetData
  1976 ;; This function uses a non-reentrant model
  1977 ;;
  1978                           
  1979                           
  1980                           ;psect for function _I2C_Rcv
  1981  007E                     _I2C_Rcv:	
  1982                           
  1983                           ;incstack = 0
  1984                           ; Regs used in _I2C_Rcv: [wreg+status,2+status,0+btemp+1]
  1985                           ;I2C_Rcv@Ack stored from wreg
  1986  007E  00F2               	movwf	I2C_Rcv@Ack
  1987                           
  1988                           ;i2c.c: 93: int i;
  1989                           ;i2c.c: 94: unsigned char BitPos, data;
  1990                           ;i2c.c: 96: data = 0;
  1991  007F  01F3               	clrf	I2C_Rcv@data
  1992                           
  1993                           ;i2c.c: 97: BitPos = 0x80;
  1994  0080  3080               	movlw	128
  1995  0081  00F0               	movwf	??_I2C_Rcv
  1996  0082  0870               	movf	??_I2C_Rcv,w
  1997  0083  00F6               	movwf	I2C_Rcv@BitPos
  1998                           
  1999                           ;i2c.c: 99: for(i=0; i<8; i++){
  2000  0084  01F4               	clrf	I2C_Rcv@i
  2001  0085  01F5               	clrf	I2C_Rcv@i+1
  2002  0086  0875               	movf	I2C_Rcv@i+1,w
  2003  0087  3A80               	xorlw	128
  2004  0088  00FF               	movwf	127
  2005  0089  3080               	movlw	128
  2006  008A  027F               	subwf	127,w
  2007  008B  1D03               	skipz
  2008  008C  288F               	goto	u55_25
  2009  008D  3008               	movlw	8
  2010  008E  0274               	subwf	I2C_Rcv@i,w
  2011  008F                     u55_25:	
  2012  008F  1803               	btfsc	3,0
  2013  0090  28BD               	goto	i1l29
  2014  0091                     i1l28:	
  2015                           
  2016                           ;i2c.c: 100: PORTDbits.RD5 = 0;
  2017  0091  1283               	bcf	3,5	;RP0=0, select bank0
  2018  0092  1303               	bcf	3,6	;RP1=0, select bank0
  2019  0093  1288               	bcf	8,5	;volatile
  2020                           
  2021                           ;i2c.c: 101: TRISDbits.TRISD4 = 1;
  2022  0094  1683               	bsf	3,5	;RP0=1, select bank1
  2023  0095  1303               	bcf	3,6	;RP1=0, select bank1
  2024  0096  1608               	bsf	8,4	;volatile
  2025                           
  2026                           ;i2c.c: 102: _delay((unsigned long)((3)*(20000000/4000000.0)));
  2027  0097  3004               	movlw	4
  2028  0098  00F0               	movwf	??_I2C_Rcv
  2029  0099                     u105_27:	
  2030  0099  0BF0               	decfsz	??_I2C_Rcv,f
  2031  009A  2899               	goto	u105_27
  2032  009B  289C               	nop2	;nop
  2033                           
  2034                           ;i2c.c: 103: PORTDbits.RD5 = 1;
  2035  009C  1283               	bcf	3,5	;RP0=0, select bank0
  2036  009D  1303               	bcf	3,6	;RP1=0, select bank0
  2037  009E  1688               	bsf	8,5	;volatile
  2038                           
  2039                           ;i2c.c: 104: if(PORTDbits.RD4){
  2040  009F  1E08               	btfss	8,4	;volatile
  2041  00A0  28A5               	goto	i1l30
  2042                           
  2043                           ;i2c.c: 105: data |= BitPos;
  2044  00A1  0876               	movf	I2C_Rcv@BitPos,w
  2045  00A2  00F0               	movwf	??_I2C_Rcv
  2046  00A3  0870               	movf	??_I2C_Rcv,w
  2047  00A4  04F3               	iorwf	I2C_Rcv@data,f
  2048  00A5                     i1l30:	
  2049                           
  2050                           ;i2c.c: 106: }
  2051                           ;i2c.c: 107: BitPos = BitPos >> 1;
  2052  00A5  0876               	movf	I2C_Rcv@BitPos,w
  2053  00A6  00F0               	movwf	??_I2C_Rcv
  2054  00A7  1003               	clrc
  2055  00A8  0C70               	rrf	??_I2C_Rcv,w
  2056  00A9  00F1               	movwf	??_I2C_Rcv+1
  2057  00AA  0871               	movf	??_I2C_Rcv+1,w
  2058  00AB  00F6               	movwf	I2C_Rcv@BitPos
  2059  00AC  3001               	movlw	1
  2060  00AD  07F4               	addwf	I2C_Rcv@i,f
  2061  00AE  1803               	skipnc
  2062  00AF  0AF5               	incf	I2C_Rcv@i+1,f
  2063  00B0  3000               	movlw	0
  2064  00B1  07F5               	addwf	I2C_Rcv@i+1,f
  2065  00B2  0875               	movf	I2C_Rcv@i+1,w
  2066  00B3  3A80               	xorlw	128
  2067  00B4  00FF               	movwf	127
  2068  00B5  3080               	movlw	128
  2069  00B6  027F               	subwf	127,w
  2070  00B7  1D03               	skipz
  2071  00B8  28BB               	goto	u57_25
  2072  00B9  3008               	movlw	8
  2073  00BA  0274               	subwf	I2C_Rcv@i,w
  2074  00BB                     u57_25:	
  2075  00BB  1C03               	skipc
  2076  00BC  2891               	goto	i1l28
  2077  00BD                     i1l29:	
  2078                           
  2079                           ;i2c.c: 108: }
  2080                           ;i2c.c: 111: PORTDbits.RD5 = 0;
  2081  00BD  1283               	bcf	3,5	;RP0=0, select bank0
  2082  00BE  1303               	bcf	3,6	;RP1=0, select bank0
  2083  00BF  1288               	bcf	8,5	;volatile
  2084                           
  2085                           ;i2c.c: 112: PORTDbits.RD4 = Ack;
  2086  00C0  0872               	movf	I2C_Rcv@Ack,w
  2087  00C1  1D03               	skipz
  2088  00C2  1608               	bsf	8,4	;volatile
  2089  00C3  1903               	skipnz
  2090  00C4  1208               	bcf	8,4	;volatile
  2091                           
  2092                           ;i2c.c: 113: TRISDbits.TRISD4 = 0;
  2093  00C5  1683               	bsf	3,5	;RP0=1, select bank1
  2094  00C6  1303               	bcf	3,6	;RP1=0, select bank1
  2095  00C7  1208               	bcf	8,4	;volatile
  2096                           
  2097                           ;i2c.c: 114: _delay((unsigned long)((2)*(20000000/4000000.0)));
  2098  00C8  3003               	movlw	3
  2099  00C9  00F0               	movwf	??_I2C_Rcv
  2100  00CA                     u106_27:	
  2101  00CA  0BF0               	decfsz	??_I2C_Rcv,f
  2102  00CB  28CA               	goto	u106_27
  2103                           
  2104                           ;i2c.c: 115: PORTDbits.RD5 = 1;
  2105  00CC  1283               	bcf	3,5	;RP0=0, select bank0
  2106  00CD  1303               	bcf	3,6	;RP1=0, select bank0
  2107  00CE  1688               	bsf	8,5	;volatile
  2108                           
  2109                           ;i2c.c: 117: return (data);
  2110  00CF  0873               	movf	I2C_Rcv@data,w
  2111  00D0  0008               	return
  2112  00D1                     __end_of_I2C_Rcv:	
  2113                           
  2114                           	psect	text13
  2115  00D1                     __ptext13:	
  2116 ;; *************** function _I2C_Out *****************
  2117 ;; Defined at:
  2118 ;;		line 49 in file "i2c.c"
  2119 ;; Parameters:    Size  Location     Type
  2120 ;;  data            1    wreg     unsigned char 
  2121 ;; Auto vars:     Size  Location     Type
  2122 ;;  data            1    3[COMMON] unsigned char 
  2123 ;;  i               2    4[COMMON] int 
  2124 ;;  BitPos          1    6[COMMON] unsigned char 
  2125 ;;  ACK             1    2[COMMON] unsigned char 
  2126 ;; Return value:  Size  Location     Type
  2127 ;;                  1    wreg      unsigned char 
  2128 ;; Registers used:
  2129 ;;		wreg, status,2, status,0, btemp+1
  2130 ;; Tracked objects:
  2131 ;;		On entry : 0/0
  2132 ;;		On exit  : 0/0
  2133 ;;		Unchanged: 0/0
  2134 ;; Data sizes:     COMMON   BANK0   BANK1   BANK3   BANK2
  2135 ;;      Params:         0       0       0       0       0
  2136 ;;      Locals:         5       0       0       0       0
  2137 ;;      Temps:          2       0       0       0       0
  2138 ;;      Totals:         7       0       0       0       0
  2139 ;;Total ram usage:        7 bytes
  2140 ;; Hardware stack levels used:    1
  2141 ;; This function calls:
  2142 ;;		Nothing
  2143 ;; This function is called by:
  2144 ;;		_I2C_Send
  2145 ;;		_I2C_GetData
  2146 ;;		_ADT_Send
  2147 ;; This function uses a non-reentrant model
  2148 ;;
  2149                           
  2150                           
  2151                           ;psect for function _I2C_Out
  2152  00D1                     _I2C_Out:	
  2153                           
  2154                           ;incstack = 0
  2155                           ; Regs used in _I2C_Out: [wreg+status,2+status,0+btemp+1]
  2156                           ;I2C_Out@data stored from wreg
  2157  00D1  00F3               	movwf	I2C_Out@data
  2158                           
  2159                           ;i2c.c: 51: int i;
  2160                           ;i2c.c: 52: unsigned char BitPos, ACK;
  2161                           ;i2c.c: 54: TRISDbits.TRISD4 = 0;
  2162  00D2  1683               	bsf	3,5	;RP0=1, select bank1
  2163  00D3  1303               	bcf	3,6	;RP1=0, select bank1
  2164  00D4  1208               	bcf	8,4	;volatile
  2165                           
  2166                           ;i2c.c: 55: BitPos = 0x80;
  2167  00D5  3080               	movlw	128
  2168  00D6  00F0               	movwf	??_I2C_Out
  2169  00D7  0870               	movf	??_I2C_Out,w
  2170  00D8  00F6               	movwf	I2C_Out@BitPos
  2171                           
  2172                           ;i2c.c: 56: for(i=0; i<8; i++){
  2173  00D9  01F4               	clrf	I2C_Out@i
  2174  00DA  01F5               	clrf	I2C_Out@i+1
  2175  00DB  0875               	movf	I2C_Out@i+1,w
  2176  00DC  3A80               	xorlw	128
  2177  00DD  00FF               	movwf	127
  2178  00DE  3080               	movlw	128
  2179  00DF  027F               	subwf	127,w
  2180  00E0  1D03               	skipz
  2181  00E1  28E4               	goto	u52_25
  2182  00E2  3008               	movlw	8
  2183  00E3  0274               	subwf	I2C_Out@i,w
  2184  00E4                     u52_25:	
  2185  00E4  1803               	btfsc	3,0
  2186  00E5  2909               	goto	i1l19
  2187  00E6                     i1l18:	
  2188                           
  2189                           ;i2c.c: 57: PORTDbits.RD5 = 0;
  2190  00E6  1283               	bcf	3,5	;RP0=0, select bank0
  2191  00E7  1303               	bcf	3,6	;RP1=0, select bank0
  2192  00E8  1288               	bcf	8,5	;volatile
  2193                           
  2194                           ;i2c.c: 58: if((data & BitPos) != 0){
  2195  00E9  0873               	movf	I2C_Out@data,w
  2196  00EA  0576               	andwf	I2C_Out@BitPos,w
  2197  00EB  1903               	btfsc	3,2
  2198  00EC  28EF               	goto	i1l20
  2199                           
  2200                           ;i2c.c: 59: PORTDbits.RD4 = 1;
  2201  00ED  1608               	bsf	8,4	;volatile
  2202                           
  2203                           ;i2c.c: 60: }else{
  2204  00EE  28F0               	goto	i1l1629
  2205  00EF                     i1l20:	
  2206                           
  2207                           ;i2c.c: 61: PORTDbits.RD4 = 0;
  2208  00EF  1208               	bcf	8,4	;volatile
  2209  00F0                     i1l1629:	
  2210                           
  2211                           ;i2c.c: 62: }
  2212                           ;i2c.c: 63: BitPos = BitPos >> 1;
  2213  00F0  0876               	movf	I2C_Out@BitPos,w
  2214  00F1  00F0               	movwf	??_I2C_Out
  2215  00F2  1003               	clrc
  2216  00F3  0C70               	rrf	??_I2C_Out,w
  2217  00F4  00F1               	movwf	??_I2C_Out+1
  2218  00F5  0871               	movf	??_I2C_Out+1,w
  2219  00F6  00F6               	movwf	I2C_Out@BitPos
  2220                           
  2221                           ;i2c.c: 64: PORTDbits.RD5 = 1;
  2222  00F7  1688               	bsf	8,5	;volatile
  2223  00F8  3001               	movlw	1
  2224  00F9  07F4               	addwf	I2C_Out@i,f
  2225  00FA  1803               	skipnc
  2226  00FB  0AF5               	incf	I2C_Out@i+1,f
  2227  00FC  3000               	movlw	0
  2228  00FD  07F5               	addwf	I2C_Out@i+1,f
  2229  00FE  0875               	movf	I2C_Out@i+1,w
  2230  00FF  3A80               	xorlw	128
  2231  0100  00FF               	movwf	127
  2232  0101  3080               	movlw	128
  2233  0102  027F               	subwf	127,w
  2234  0103  1D03               	skipz
  2235  0104  2907               	goto	u54_25
  2236  0105  3008               	movlw	8
  2237  0106  0274               	subwf	I2C_Out@i,w
  2238  0107                     u54_25:	
  2239  0107  1C03               	skipc
  2240  0108  28E6               	goto	i1l18
  2241  0109                     i1l19:	
  2242                           
  2243                           ;i2c.c: 65: }
  2244                           ;i2c.c: 67: PORTDbits.RD5 = 0;
  2245  0109  1283               	bcf	3,5	;RP0=0, select bank0
  2246  010A  1303               	bcf	3,6	;RP1=0, select bank0
  2247  010B  1288               	bcf	8,5	;volatile
  2248                           
  2249                           ;i2c.c: 68: TRISDbits.TRISD4 = 1;
  2250  010C  1683               	bsf	3,5	;RP0=1, select bank1
  2251  010D  1303               	bcf	3,6	;RP1=0, select bank1
  2252  010E  1608               	bsf	8,4	;volatile
  2253                           
  2254                           ;i2c.c: 69: _delay((unsigned long)((2)*(20000000/4000000.0)));
  2255  010F  3003               	movlw	3
  2256  0110  00F0               	movwf	??_I2C_Out
  2257  0111                     u107_27:	
  2258  0111  0BF0               	decfsz	??_I2C_Out,f
  2259  0112  2911               	goto	u107_27
  2260                           
  2261                           ;i2c.c: 70: PORTDbits.RD5 = 1;
  2262  0113  1283               	bcf	3,5	;RP0=0, select bank0
  2263  0114  1303               	bcf	3,6	;RP1=0, select bank0
  2264  0115  1688               	bsf	8,5	;volatile
  2265                           
  2266                           ;i2c.c: 71: _delay((unsigned long)((2)*(20000000/4000000.0)));
  2267  0116  3003               	movlw	3
  2268  0117  00F0               	movwf	??_I2C_Out
  2269  0118                     u108_27:	
  2270  0118  0BF0               	decfsz	??_I2C_Out,f
  2271  0119  2918               	goto	u108_27
  2272                           
  2273                           ;i2c.c: 72: ACK = PORTDbits.RD4;
  2274  011A  3000               	movlw	0
  2275  011B  1283               	bcf	3,5	;RP0=0, select bank0
  2276  011C  1303               	bcf	3,6	;RP1=0, select bank0
  2277  011D  1A08               	btfsc	8,4	;volatile
  2278  011E  3001               	movlw	1
  2279  011F  00F2               	movwf	I2C_Out@ACK
  2280  0120  0008               	return
  2281  0121                     __end_of_I2C_Out:	
  2282                           ;i2c.c: 74: return (ACK);
  2283                           ;	Return value of _I2C_Out is never used
  2284                           
  2285                           
  2286                           	psect	text14
  2287  026E                     __ptext14:	
  2288 ;; *************** function _interrupt_disable *****************
  2289 ;; Defined at:
  2290 ;;		line 103 in file "OBC2_app.c"
  2291 ;; Parameters:    Size  Location     Type
  2292 ;;		None
  2293 ;; Auto vars:     Size  Location     Type
  2294 ;;		None
  2295 ;; Return value:  Size  Location     Type
  2296 ;;		None               void
  2297 ;; Registers used:
  2298 ;;		None
  2299 ;; Tracked objects:
  2300 ;;		On entry : 0/0
  2301 ;;		On exit  : 0/0
  2302 ;;		Unchanged: 0/0
  2303 ;; Data sizes:     COMMON   BANK0   BANK1   BANK3   BANK2
  2304 ;;      Params:         0       0       0       0       0
  2305 ;;      Locals:         0       0       0       0       0
  2306 ;;      Temps:          0       0       0       0       0
  2307 ;;      Totals:         0       0       0       0       0
  2308 ;;Total ram usage:        0 bytes
  2309 ;; Hardware stack levels used:    1
  2310 ;; This function calls:
  2311 ;;		Nothing
  2312 ;; This function is called by:
  2313 ;;		_I2Ctemp
  2314 ;; This function uses a non-reentrant model
  2315 ;;
  2316                           
  2317                           
  2318                           ;psect for function _interrupt_disable
  2319  026E                     _interrupt_disable:	
  2320                           
  2321                           ;OBC2_app.c: 106: PIE1bits.RCIE = 0;
  2322                           
  2323                           ;incstack = 0
  2324                           ; Regs used in _interrupt_disable: []
  2325  026E  1683               	bsf	3,5	;RP0=1, select bank1
  2326  026F  1303               	bcf	3,6	;RP1=0, select bank1
  2327  0270  128C               	bcf	12,5	;volatile
  2328                           
  2329                           ;OBC2_app.c: 107: INTCONbits.GIE = 0;
  2330  0271  138B               	bcf	11,7	;volatile
  2331                           
  2332                           ;OBC2_app.c: 108: INTCONbits.PEIE = 0;
  2333  0272  130B               	bcf	11,6	;volatile
  2334  0273  0008               	return
  2335  0274                     __end_of_interrupt_disable:	
  2336  007E                     btemp	set	126	;btemp
  2337  007E                     wtemp	set	126
  2338  007E                     wtemp0	set	126
  2339  0080                     wtemp1	set	128
  2340  0082                     wtemp2	set	130
  2341  0084                     wtemp3	set	132
  2342  0086                     wtemp4	set	134
  2343  0088                     wtemp5	set	136
  2344  007F                     wtemp6	set	127
  2345  007E                     ttemp	set	126
  2346  007E                     ttemp0	set	126
  2347  0081                     ttemp1	set	129
  2348  0084                     ttemp2	set	132
  2349  0087                     ttemp3	set	135
  2350  007F                     ttemp4	set	127
  2351  007E                     ltemp	set	126
  2352  007E                     ltemp0	set	126
  2353  0082                     ltemp1	set	130
  2354  0086                     ltemp2	set	134
  2355  0080                     ltemp3	set	128


Data Sizes:
    Strings     0
    Constant    2
    Data        0
    BSS         48
    Persistent  0
    Stack       0

Auto Spaces:
    Space          Size  Autos    Used
    COMMON           14     14      14
    BANK0            80     17      65
    BANK1            80      3       3
    BANK3            96      0       0
    BANK2            96      0       0

Pointer List with Targets:

    ADT_Receive@data	PTR unsigned char  size(1) Largest target is 2
		 -> ADT_Read@data(COMMON[2]), ADT_ActionMode@data(COMMON[2]), trans_I2Ctemp@data(BANK0[2]), 

    OBC1_RESET_init@nin	PTR unsigned char  size(2) Largest target is 512
		 -> RAM(DATA[512]), 

    I2C_GetData@Buffer	PTR unsigned char  size(1) Largest target is 2
		 -> ADT_Read@data(COMMON[2]), ADT_ActionMode@data(COMMON[2]), trans_I2Ctemp@data(BANK0[2]), 


Critical Paths under _main in COMMON

    None.

Critical Paths under _I2Ctemp in COMMON

    _ADT_Receive->_I2C_GetData
    _I2C_Send->_I2C_Out
    _I2C_GetData->_I2C_Out
    _I2C_GetData->_I2C_Rcv

Critical Paths under _main in BANK0

    _main->_OBC1_RESET_init

Critical Paths under _I2Ctemp in BANK0

    _I2Ctemp->_trans_I2Ctemp
    _trans_I2Ctemp->_ADT_Receive

Critical Paths under _main in BANK1

    None.

Critical Paths under _I2Ctemp in BANK1

    None.

Critical Paths under _main in BANK3

    None.

Critical Paths under _I2Ctemp in BANK3

    None.

Critical Paths under _main in BANK2

    None.

Critical Paths under _I2Ctemp in BANK2

    None.

Call Graph Tables:

 ---------------------------------------------------------------------------------
 (Depth) Function   	        Calls       Base Space   Used Autos Params    Refs
 ---------------------------------------------------------------------------------
 (0) _main                                                 3     3      0      23
                                              0 BANK1      3     3      0
                           _I2C_init
                    _OBC1_RESET_init
                          _uart_init
 ---------------------------------------------------------------------------------
 (1) _uart_init                                            0     0      0       0
 ---------------------------------------------------------------------------------
 (1) _OBC1_RESET_init                                      2     2      0      23
                                             15 BANK0      2     2      0
 ---------------------------------------------------------------------------------
 (1) _I2C_init                                             0     0      0       0
 ---------------------------------------------------------------------------------
 Estimated maximum stack depth 1
 ---------------------------------------------------------------------------------
 (Depth) Function   	        Calls       Base Space   Used Autos Params    Refs
 ---------------------------------------------------------------------------------
 (2) _I2Ctemp                                              4     4      0    1498
                                             11 BANK0      4     4      0
                  _interrupt_disable
                      _trans_I2Ctemp
 ---------------------------------------------------------------------------------
 (3) _trans_I2Ctemp                                        5     5      0    1498
                                              6 BANK0      5     5      0
                        _ADT_Receive
                              _putch
 ---------------------------------------------------------------------------------
 (4) _putch                                                1     1      0      22
                                              0 COMMON     1     1      0
 ---------------------------------------------------------------------------------
 (4) _ADT_Receive                                          7     5      2    1405
                                              0 BANK0      6     4      2
                        _I2C_GetData
                           _I2C_Send
 ---------------------------------------------------------------------------------
 (5) _I2C_Send                                             5     4      1     317
                                              7 COMMON     5     4      1
                            _I2C_Out
                          _I2C_Start
                           _I2C_Stop
 ---------------------------------------------------------------------------------
 (5) _I2C_GetData                                          7     5      2     591
                                              7 COMMON     7     5      2
                            _I2C_Out
                            _I2C_Rcv
                          _I2C_Start
                           _I2C_Stop
 ---------------------------------------------------------------------------------
 (6) _I2C_Stop                                             1     1      0       0
                                              0 COMMON     1     1      0
 ---------------------------------------------------------------------------------
 (6) _I2C_Start                                            0     0      0       0
 ---------------------------------------------------------------------------------
 (6) _I2C_Rcv                                              7     7      0     138
                                              0 COMMON     7     7      0
 ---------------------------------------------------------------------------------
 (6) _I2C_Out                                              7     7      0     121
                                              0 COMMON     7     7      0
 ---------------------------------------------------------------------------------
 (3) _interrupt_disable                                    0     0      0       0
 ---------------------------------------------------------------------------------
 Estimated maximum stack depth 6
 ---------------------------------------------------------------------------------

 Call Graph Graphs:

 _main (ROOT)
   _I2C_init
   _OBC1_RESET_init
   _uart_init

 _I2Ctemp (ROOT)
   _interrupt_disable
   _trans_I2Ctemp
     _ADT_Receive
       _I2C_GetData
         _I2C_Out
         _I2C_Rcv
         _I2C_Start
         _I2C_Stop
       _I2C_Send
         _I2C_Out
         _I2C_Start
         _I2C_Stop
     _putch

 Address spaces:
Name               Size   Autos  Total    Cost      Usage
BITCOMMON            E      0       0       0        0.0%
EEDATA             100      0       0       0        0.0%
NULL                 0      0       0       0        0.0%
CODE                 0      0       0       0        0.0%
COMMON               E      E       E       1      100.0%
BITSFR0              0      0       0       1        0.0%
SFR0                 0      0       0       1        0.0%
BITSFR1              0      0       0       2        0.0%
SFR1                 0      0       0       2        0.0%
STACK                0      0       0       2        0.0%
ABS                  0      0      52       3        0.0%
BITBANK0            50      0       0       4        0.0%
BITSFR3              0      0       0       4        0.0%
SFR3                 0      0       0       4        0.0%
BANK0               50     11      41       5       81.3%
BITSFR2              0      0       0       5        0.0%
SFR2                 0      0       0       5        0.0%
BITBANK1            50      0       0       6        0.0%
BANK1               50      3       3       7        3.8%
BITBANK3            60      0       0       8        0.0%
BANK3               60      0       0       9        0.0%
BITBANK2            60      0       0      10        0.0%
BANK2               60      0       0      11        0.0%
DATA                 0      0      52      12        0.0%


Microchip Technology PIC Macro Assembler V1.35 build -356382666 
Symbol Table                                                                                   Tue Mar 15 21:03:39 2016

                                   pc 0002                    __size_of_I2C_Start 0007  
                         __CFG_CP$OFF 0000                           _SSPSTATbits 0094  
                                  _cw 0043                                    fsr 0004  
                __size_of_I2C_GetData 0045                          __CFG_CPD$OFF 0000  
                                 u987 0040                                   u997 0052  
                                 fsr0 0004                       __end_of_I2C_Rcv 00D1  
                     __end_of_I2C_Out 0121                                   indf 0000  
                        __CFG_FOSC$HS 0000                       __end_of_I2Ctemp 0220  
                        __CFG_LVP$OFF 0000                                  l2231 0059  
                                u1007 0064                                  u1017 0076  
                                i1l20 00EF                                  i1l30 00A5  
                                i1l18 00E6                                  i1l19 0109  
                                i1l28 0091                                  _RCIF 0065  
                                i1l29 00BD               __end_of_OBC1_RESET_init 0236  
                                _TXIF 0064                          __CFG_WRT$OFF 0000  
                                _main 0020                        ?_trans_I2Ctemp 0070  
                    __end_of_I2C_Send 01EB                                  btemp 007E  
                    __end_of_I2C_Stop 0206                         __CFG_BOREN$ON 0000  
                                ltemp 007E                      __end_of_I2C_init 0243  
                                start 0012                                  ttemp 007E  
                                wtemp 007E                                 ?_main 0070  
                       __CFG_WDTE$OFF 0000                                 i1l356 01CC  
                               i1l389 0260                                 i1l469 0213  
                               _RCREG 001A                                 _RCSTA 0018  
                               _SPBRG 0099                                 u52_25 00E4  
                               u54_25 0107                                 u55_25 008F  
                               u57_25 00BB                                 _TXREG 0019  
                               _TXSTA 0098                         __CFG_PWRTE$ON 0000  
                 ADT_Receive@reg_adrs 0054                                 _putch 025F  
                   __end_of_I2C_Start 026E                                 pclath 000A  
                               ltemp0 007E                                 ltemp1 0082  
                               ltemp2 0086                                 ltemp3 0080  
                __size_of_ADT_Receive 002B                                 ttemp0 007E  
                               ttemp1 0081                                 ttemp2 0084  
                               ttemp3 0087                                 ttemp4 007F  
                               status 0003                                 wtemp0 007E  
                               wtemp1 0080                                 wtemp2 0082  
                               wtemp3 0084                                 wtemp4 0086  
                               wtemp5 0088                                 wtemp6 007F  
                     __initialization 0015                          __end_of_main 007E  
                           ??_I2C_Rcv 0070                             ??_I2C_Out 0070  
                           ??_I2Ctemp 005B                                ??_main 00A0  
                              ?_putch 0070                       ??_trans_I2Ctemp 0056  
                              u102_27 017E                                u103_27 0195  
                              u104_27 0202                                i1l1703 013B  
                              i1l1705 0153                                i1l1629 00F0  
                              u105_27 0099                                i1l1729 01C8  
                              u106_27 00CA                                u107_27 0111  
                              u108_27 0118                      ?_OBC1_RESET_init 0070  
                              _SSPBUF 0013                        I2C_GetData@CNT 0078  
                      I2C_GetData@adr 007C                                _packet 0023  
                           ?_I2C_Send 0077                             ?_I2C_Stop 0070  
                              saved_w 007E                             ?_I2C_init 0070  
             __end_of__initialization 001C                        __pcstackCOMMON 0070  
                       __end_of_putch 0267                            ??_I2C_Send 0078  
                          ??_I2C_Stop 0070                            ??_I2C_init 005F  
                        I2C_GetData@i 007D                               ??_putch 0070  
                          __pbssBANK0 0020                     I2C_Send@slave_adr 007A  
                          I2C_Rcv@Ack 0072                            __pmaintext 0020  
                          I2C_Out@ACK 0072                         ??_I2C_GetData 0079  
                          __pintentry 0004                               _I2C_Rcv 007E  
                             _I2C_Out 00D1                               _I2Ctemp 0206  
                        I2C_Send@data 0077                    __size_of_uart_init 000C  
                          __stringtab 024F                             _I2C_Start 0267  
                             __ptext1 0243                               __ptext2 0220  
                             __ptext3 0236                               __ptext4 0206  
                             __ptext5 0166                               __ptext6 025F  
                             __ptext7 01A3                               __ptext8 01CE  
                             __ptext9 0121                   __end_of_I2C_GetData 0166  
                       ??_ADT_Receive 0052                               clrloop0 0258  
                end_of_initialization 001C                            ?_I2C_Start 0070  
                   __end_of_uart_init 024F                             _PORTCbits 0007  
                           _PORTDbits 0008                             _TRISCbits 0087  
                           _TRISDbits 0088                             _TRISEbits 0089  
                   __size_of_I2C_Send 001D                     __size_of_I2C_Stop 001B  
                   __size_of_I2C_init 000D                 __end_of_trans_I2Ctemp 01A3  
                  OBC1_RESET_init@nin 005F                   __end_of_ADT_Receive 01CE  
            __size_of_OBC1_RESET_init 0016                           _I2C_GetData 0121  
                 start_initialization 0015                     I2C_GetData@Buffer 0077  
                            I2C_Rcv@i 0074                              I2C_Out@i 0074  
                         ??_I2C_Start 0070                              ?_I2C_Rcv 0070  
                            ?_I2C_Out 0070                              ?_I2Ctemp 0070  
                     ADT_Receive@data 0050                             ___latbits 0002  
                     ADT_Receive@kosu 0051                         __pcstackBANK0 0050  
                       __pcstackBANK1 00A0                           _ADT_Receive 01A3  
                       I2C_Rcv@BitPos 0076                           I2C_Rcv@data 0073  
                         I2C_Send@adr 007B                           I2C_Out@data 0073  
                           __pstrings 024F                     ??_OBC1_RESET_init 005F  
                   _interrupt_disable 026E                              _I2C_Send 01CE  
                            _I2C_Stop 01EB                    ?_interrupt_disable 0070  
                            _I2C_init 0236                             _index_pos 0022  
                      __size_of_putch 0008                   ??_interrupt_disable 0070  
                       I2C_Out@BitPos 0076                     interrupt_function 0004  
                           clear_ram0 0257                              _PIE1bits 008C  
                            _PIR1bits 000C                             _uart_init 0243  
           __end_of_interrupt_disable 0274                      __size_of_I2C_Rcv 0053  
                    __size_of_I2C_Out 0050                           __stringbase 0254  
                    __size_of_I2Ctemp 001A                  I2C_GetData@slave_adr 007B  
                          ?_uart_init 0070                          ?_I2C_GetData 0077  
                      ADT_Receive@ans 0055                    __end_of__stringtab 0255  
                            __ptext10 01EB                              __ptext11 0267  
                            __ptext12 007E                              __ptext13 00D1  
                            __ptext14 026E  __end_ofuint16_to_byte_array@bit_mask 0257  
        uint16_to_byte_array@bit_mask 0255                         __size_of_main 005E  
          __size_of_interrupt_disable 0006                __size_of_trans_I2Ctemp 003D  
                           putch@byte 0070                            _INTCONbits 000B  
                        ?_ADT_Receive 0050                              intlevel1 0000  
                 ADT_ActionMode@F1258 0020                             stringcode 024F  
                     _OBC1_RESET_init 0220                           ??_uart_init 005F  
                            stringdir 024F                              stringtab 024F  
                       _trans_I2Ctemp 0166                            _SSPCONbits 0014  
                   trans_I2Ctemp@data 0059  
